Component: ARM Compiler 5.06 update 6 (build 750) Tool: armlink [4d35ed]

==============================================================================

Section Cross References

    target.o(.text) refers to os_core.o(.text) for OSTimeTick
    target.o(.text) refers to rand.o(.text) for srand
    target.o(.text) refers to irq.o(IRQ) for EINT2_Handler
    irq.o(IRQ) refers to target.o(.text) for IRQ_Exception
    irq.o(IRQ) refers to os_core.o(.text) for OSIntExit
    irq.o(IRQ) refers to _uart.o(.text) for UART0_Exception
    irq.o(IRQ) refers to _can.o(.text) for CAN_Exception
    irq.o(IRQ) refers to os_core.o(.data) for OSIntNesting
    irq.o(IRQ) refers to startup.o(STACK) for StackUsr
    irq.o(IRQ) refers to os_cpu_c.o(.data) for OsEnterSum
    irq.o(IRQ) refers to os_cpu_a.o(subr) for OSIntCtxSw
    startup.o(STACK) refers (Special) to heapauxi.o(.text) for __use_two_region_memory
    startup.o(HEAP) refers (Special) to heapauxi.o(.text) for __use_two_region_memory
    startup.o(RESET) refers (Special) to heapauxi.o(.text) for __use_two_region_memory
    startup.o(RESET) refers to os_cpu_a.o(subr) for SoftwareInterrupt
    startup.o(RESET) refers to target.o(.text) for FIQ_Exception
    startup.o(RESET) refers to startup.o(STACK) for Stack_Top
    startup.o(RESET) refers to __main.o(!!!main) for __main
    startup.o(.text) refers (Special) to heapauxi.o(.text) for __use_two_region_memory
    startup.o(.text) refers to startup.o(HEAP) for Heap_Mem
    startup.o(.text) refers to startup.o(STACK) for Stack_Mem
    os_cpu_c.o(.text) refers to target.o(.text) for WatchDog
    os_cpu_c.o(.text) refers to os_cpu_c.o(.data) for OsEnterSum
    os_cpu_c.o(.text) refers to os_core.o(.bss) for OSTCBPrioTbl
    os_cpu_a.o(subr) refers to os_cpu_c.o(.text) for SWI_Exception
    os_cpu_a.o(subr) refers to os_cpu_a.o(SWIStacks) for SvcStackSpace
    os_cpu_a.o(subr) refers to os_cpu_c.o(.data) for OsEnterSum
    os_cpu_a.o(subr) refers to os_core.o(.data) for OSTCBCur
    os_core.o(.text) refers to os_time.o(.text) for OSTimeDly
    os_core.o(.text) refers to aeabi_sdiv.o(.text_udiv) for __aeabi_uidivmod
    os_core.o(.text) refers to os_cpu_c.o(.text) for OSTaskStatHook
    os_core.o(.text) refers to os_task.o(.text) for OSTaskCreateExt
    os_core.o(.text) refers to os_flag.o(.text) for OS_FlagInit
    os_core.o(.text) refers to os_mem.o(.text) for OS_MemInit
    os_core.o(.text) refers to os_q.o(.text) for OS_QInit
    os_core.o(.text) refers to os_core.o(.data) for OSStatRdy
    os_core.o(.text) refers to os_core.o(.bss) for OSTaskStatStk
    os_core.o(.text) refers to os_core.o(.constdata) for OSUnMapTbl
    os_flag.o(.text) refers to os_core.o(.text) for OS_Sched
    os_flag.o(.text) refers to os_core.o(.data) for OSIntNesting
    os_flag.o(.text) refers to os_core.o(.bss) for OSFlagTbl
    os_mbox.o(.text) refers to os_core.o(.text) for OS_EventWaitListInit
    os_mbox.o(.text) refers to os_core.o(.data) for OSIntNesting
    os_mem.o(.text) refers to os_core.o(.data) for OSMemFreeList
    os_mem.o(.text) refers to os_core.o(.bss) for OSMemTbl
    os_mutex.o(.text) refers to os_core.o(.text) for OS_EventWaitListInit
    os_mutex.o(.text) refers to os_core.o(.data) for OSIntNesting
    os_mutex.o(.text) refers to os_core.o(.bss) for OSTCBPrioTbl
    os_mutex.o(.text) refers to os_core.o(.constdata) for OSMapTbl
    os_q.o(.text) refers to os_core.o(.text) for OS_EventWaitListInit
    os_q.o(.text) refers to os_core.o(.data) for OSIntNesting
    os_q.o(.text) refers to os_core.o(.bss) for OSQTbl
    os_sem.o(.text) refers to os_core.o(.text) for OS_EventWaitListInit
    os_sem.o(.text) refers to os_core.o(.data) for OSIntNesting
    os_task.o(.text) refers to os_core.o(.text) for OS_Sched
    os_task.o(.text) refers to os_cpu_c.o(.text) for OSTaskStkInit
    os_task.o(.text) refers to rt_memclr_w.o(.text) for __aeabi_memclr4
    os_task.o(.text) refers to os_flag.o(.text) for OS_FlagUnlink
    os_task.o(.text) refers to rt_memcpy_w.o(.text) for __aeabi_memcpy4
    os_task.o(.text) refers to os_core.o(.bss) for OSTCBPrioTbl
    os_task.o(.text) refers to os_core.o(.constdata) for OSMapTbl
    os_task.o(.text) refers to os_core.o(.data) for OSTCBCur
    os_time.o(.text) refers to os_core.o(.text) for OS_Sched
    os_time.o(.text) refers to aeabi_sdiv.o(.text_udiv) for __aeabi_uidivmod
    os_time.o(.text) refers to os_core.o(.data) for OSTCBCur
    os_time.o(.text) refers to os_core.o(.bss) for OSTCBPrioTbl
    _arithmetic.o(.text) refers to _arithmetic.o(.constdata) for nand_ecc_precalc_table
    _arithmetic.o(.constdata) refers to _arithmetic.o(.text) for nand_calculate_ecc
    _ascnumber.o(.text) refers to aeabi_sdiv.o(.text) for __aeabi_idivmod
    _ascnumber.o(.text) refers to aeabi_sdiv.o(.text_udiv) for __aeabi_uidivmod
    _ascnumber.o(.text) refers to memchr.o(.text) for memchr
    _ascnumber.o(.text) refers to _ascnumber.o(.constdata) for FixPointValue
    _ascnumber.o(.text) refers to _ascnumber.o(.data) for CN_st_File_GBK
    _ascnumber.o(.text) refers to _rwfile.o(.constdata) for CN_st_Fun_File
    _ascnumber.o(.constdata) refers to _ascnumber.o(.text) for Asc2Bcd
    _date.o(.text) refers to aeabi_sdiv.o(.text) for __aeabi_idivmod
    _date.o(.text) refers to _ascnumber.o(.constdata) for CN_st_Fun_AscNumber
    _date.o(.constdata) refers to _date.o(.text) for Juge
    _can.o(.text) refers to os_sem.o(.text) for OSSemCreate
    _can.o(.text) refers to os_mbox.o(.text) for OSMboxCreate
    _can.o(.text) refers to target.o(.text) for WatchDog
    _can.o(.text) refers to _can.o(.data) for Can0UseSem
    _can.o(.text) refers to _can.o(.bss) for CN_st_Da_CanInfor1
    _can.o(.data) refers to _can.o(.text) for Init
    _rtc.o(.text) refers to os_sem.o(.text) for OSSemCreate
    _rtc.o(.text) refers to aeabi_sdiv.o(.text_udiv) for __aeabi_uidivmod
    _rtc.o(.text) refers to _rtc.o(.data) for RTCSem
    _rtc.o(.text) refers to _ascnumber.o(.constdata) for CN_st_Fun_AscNumber
    _rtc.o(.text) refers to _date.o(.constdata) for CN_st_Fun_Date
    _rtc.o(.constdata) refers to _rtc.o(.text) for Init
    _spi.o(.text) refers to os_sem.o(.text) for OSSemCreate
    _spi.o(.text) refers to _spi.o(.data) for SPISem
    _spi.o(.text) refers to os_core.o(.data) for OSPrioCur
    _spi.o(.constdata) refers to _spi.o(.text) for Open
    _uart.o(.text) refers to os_sem.o(.text) for OSSemCreate
    _uart.o(.text) refers to os_mbox.o(.text) for OSMboxCreate
    _uart.o(.text) refers to aeabi_sdiv.o(.text_udiv) for __aeabi_uidivmod
    _uart.o(.text) refers to _uart.o(.data) for Uart0UseSem
    _uart.o(.constdata) refers to _uart.o(.text) for Init
    adchard.o(.text) refers to os_sem.o(.text) for OSSemCreate
    adchard.o(.text) refers to aeabi_sdiv.o(.text_udiv) for __aeabi_uidivmod
    adchard.o(.text) refers to target.o(.text) for WatchDog
    adchard.o(.text) refers to adchard.o(.data) for AdcSem
    adchard.o(.text) refers to adchard.o(.bss) for CN_st_Data_Adc
    adchard.o(.text) refers to _ascnumber.o(.constdata) for CN_st_Fun_AscNumber
    adchard.o(.text) refers to adchard.o(.constdata) for CN_Ba_st_Data_Adc_Oper
    adchard.o(.constdata) refers to adchard.o(.text) for Init
    ds18b20.o(.text) refers to os_sem.o(.text) for OSSemCreate
    ds18b20.o(.text) refers to target.o(.text) for WatchDog
    ds18b20.o(.text) refers to ds18b20.o(.data) for DS18B20Sem
    ds18b20.o(.text) refers to ds18b20.o(.constdata) for CN_Ba_PinDe
    ds18b20.o(.constdata) refers to ds18b20.o(.text) for Init
    huaiweigprs.o(.text) refers to huaiweigprs.o(.data) for ModermCom
    huaiweigprs.o(.text) refers to huaiweigprs.o(.constdata) for CN_HuaWei_st_GprsHard_Order
    huaiweigprs.o(.text) refers to _ascnumber.o(.constdata) for CN_st_Fun_AscNumber
    huaiweigprs.o(.constdata) refers to huaiweigprs.o(.text) for Init
    huaiweigprs.o(.constdata) refers to huaiweigprs.o(.conststring) for .conststring
    gprshard.o(.text) refers to target.o(.text) for WatchDog
    gprshard.o(.text) refers to os_time.o(.text) for OSTimeDly
    gprshard.o(.text) refers to _uart.o(.constdata) for CN_st_Fun_Uart
    gprshard.o(.text) refers to gprshard.o(.data) for ptst_Fun_GprsHard_Fac
    gprshard.o(.text) refers to _ascnumber.o(.constdata) for CN_st_Fun_AscNumber
    gprshard.o(.text) refers to gprshard.o(.constdata) for CN_st_GprsHard_Order_Cut_ChipID
    gprshard.o(.constdata) refers to gprshard.o(.text) for Init
    gprshard.o(.constdata) refers to gprshard.o(.conststring) for .conststring
    gprshard.o(.data) refers to huaiweigprs.o(.constdata) for CN_Huawei_st_Fun_GprsHard_Fac
    less.o(.text) refers to os_sem.o(.text) for OSSemCreate
    less.o(.text) refers to os_time.o(.text) for OSTimeDly
    less.o(.text) refers to less.o(.constdata) for .constdata
    less.o(.text) refers to less.o(.data) for LessSem
    less.o(.text) refers to _uart.o(.constdata) for CN_st_Fun_Uart
    less.o(.text) refers to less.o(.bss) for CN_st_Less_Par_Oper
    less.o(.text) refers to _ascnumber.o(.constdata) for CN_st_Fun_AscNumber
    less.o(.text) refers to _rtc.o(.constdata) for CN_st_Fun_RTC
    less.o(.text) refers to _arithmetic.o(.constdata) for CN_st_Fun_Arithmetic
    less.o(.text) refers to _date.o(.constdata) for CN_st_Fun_Date
    less.o(.constdata) refers to less.o(.text) for Init1
    acc.o(.text) refers to os_sem.o(.text) for OSSemCreate
    acc.o(.text) refers to acc.o(.data) for ACCSem
    acc.o(.text) refers to _rtc.o(.constdata) for CN_st_Fun_RTC
    acc.o(.text) refers to _ascnumber.o(.constdata) for CN_st_Fun_AscNumber
    acc.o(.text) refers to _date.o(.constdata) for CN_st_Fun_Date
    acc.o(.constdata) refers to acc.o(.text) for Init
    oil.o(.text) refers to os_sem.o(.text) for OSSemCreate
    oil.o(.text) refers to aeabi_sdiv.o(.text_udiv) for __aeabi_uidivmod
    oil.o(.text) refers to oil.o(.data) for OilSem
    oil.o(.text) refers to _rtc.o(.constdata) for CN_st_Fun_RTC
    oil.o(.text) refers to oil.o(.constdata) for .constdata
    oil.o(.text) refers to adchard.o(.constdata) for CN_st_Fun_Adc
    oil.o(.text) refers to oil.o(.bss) for CN_VoVal
    oil.o(.text) refers to _ascnumber.o(.constdata) for CN_st_Fun_AscNumber
    oil.o(.text) refers to _date.o(.constdata) for CN_st_Fun_Date
    oil.o(.constdata) refers to oil.o(.text) for Init
    sensor.o(.text) refers to os_sem.o(.text) for OSSemCreate
    sensor.o(.text) refers to target.o(.text) for WatchDog
    sensor.o(.text) refers to sensor.o(.data) for SensorSem
    sensor.o(.text) refers to sensor.o(.bss) for CN_st_Sensor_Oper
    sensor.o(.text) refers to _ascnumber.o(.constdata) for CN_st_Fun_AscNumber
    sensor.o(.text) refers to sensor.o(.constdata) for CN_Ba_st_Sensor_Oper
    sensor.o(.constdata) refers to sensor.o(.text) for Init
    sensor.o(.data) refers to acc.o(.constdata) for CN_Acc_st_Sensor_ParList
    sensor.o(.data) refers to oil.o(.constdata) for CN_Oil_st_Sensor_ParList
    sensor.o(.data) refers to less.o(.constdata) for CN_Less_st_Sensor_ParList
    sensor.o(.data) refers to gps.o(.constdata) for CN_Gps_st_Sensor_ParList
    sensor.o(.data) refers to display.o(.constdata) for CN_Display_st_Sensor_ParList
    sensor.o(.data) refers to temperture.o(.constdata) for CN_Temperture_st_Sensor_ParList
    sensor.o(.data) refers to mileage.o(.constdata) for CN_Mileage_st_Sensor_ParList
    sensor.o(.data) refers to arealrm.o(.constdata) for CN_Arealrm_st_Sensor_ParList
    sensor.o(.data) refers to uarttzxy.o(.constdata) for CN_UartTzxy_st_Sensor_ParList
    sensor.o(.data) refers to gprstzxy.o(.constdata) for CN_GprsTzxy_st_Sensor_ParList
    sensor.o(.data) refers to help.o(.constdata) for CN_Help_st_Sensor_ParList
    sensor.o(.data) refers to onoroff.o(.constdata) for CN_OnOrOff_st_Sensor_ParList
    sensor.o(.data) refers to adc1.o(.constdata) for CN_Adc1_st_Sensor_ParList
    sensor.o(.data) refers to smstzxy.o(.constdata) for CN_SmsTzxy_st_Sensor_ParList
    gps.o(.text) refers to os_sem.o(.text) for OSSemCreate
    gps.o(.text) refers to aeabi_sdiv.o(.text_udiv) for __aeabi_uidivmod
    gps.o(.text) refers to target.o(.text) for WatchDog
    gps.o(.text) refers to memchr.o(.text) for memchr
    gps.o(.text) refers to strlen.o(.text) for strlen
    gps.o(.text) refers to gps.o(.constdata) for .constdata
    gps.o(.text) refers to gps.o(.data) for GpsSem
    gps.o(.text) refers to _uart.o(.constdata) for CN_st_Fun_Uart
    gps.o(.text) refers to _ascnumber.o(.constdata) for CN_st_Fun_AscNumber
    gps.o(.text) refers to _date.o(.constdata) for CN_st_Fun_Date
    gps.o(.text) refers to gps.o(.bss) for CN_Gps_Buf
    gps.o(.text) refers to _arithmetic.o(.constdata) for CN_st_Fun_Arithmetic
    gps.o(.constdata) refers to gps.o(.conststring) for .conststring
    gps.o(.constdata) refers to gps.o(.text) for Init
    display.o(.text) refers to os_sem.o(.text) for OSSemCreate
    display.o(.text) refers to target.o(.text) for WatchDog
    display.o(.text) refers to os_time.o(.text) for OSTimeDly
    display.o(.text) refers to display.o(.data) for DisplaySem
    display.o(.text) refers to display.o(.constdata) for .constdata
    display.o(.text) refers to _uart.o(.constdata) for CN_st_Fun_Uart
    display.o(.text) refers to _ascnumber.o(.constdata) for CN_st_Fun_AscNumber
    display.o(.text) refers to _filedata.o(.bss) for CN_st_File_fd
    display.o(.text) refers to _rwfile.o(.constdata) for CN_st_Fun_File
    display.o(.text) refers to _date.o(.constdata) for CN_st_Fun_Date
    display.o(.constdata) refers to display.o(.text) for Host_Answer
    temperture.o(.text) refers to os_sem.o(.text) for OSSemCreate
    temperture.o(.text) refers to temperture.o(.data) for TempertureSem
    temperture.o(.text) refers to temperture.o(.bss) for CN_st_Temperture_Par_Oper
    temperture.o(.text) refers to _ascnumber.o(.constdata) for CN_st_Fun_AscNumber
    temperture.o(.text) refers to temperture.o(.constdata) for CN_Ba_st_Temperture_State
    temperture.o(.text) refers to _rtc.o(.constdata) for CN_st_Fun_RTC
    temperture.o(.text) refers to ds18b20.o(.constdata) for CN_st_Fun_18B20
    temperture.o(.text) refers to _date.o(.constdata) for CN_st_Fun_Date
    temperture.o(.constdata) refers to temperture.o(.text) for Init
    mileage.o(.text) refers to os_sem.o(.text) for OSSemCreate
    mileage.o(.text) refers to fflt_noclz.o(x$fpl$ffltu) for __aeabi_ui2f
    mileage.o(.text) refers to f2d.o(x$fpl$f2d) for __aeabi_f2d
    mileage.o(.text) refers to ddiv.o(x$fpl$ddiv) for __aeabi_ddiv
    mileage.o(.text) refers to d2f.o(x$fpl$d2f) for __aeabi_d2f
    mileage.o(.text) refers to dmul.o(x$fpl$dmul) for __aeabi_dmul
    mileage.o(.text) refers to frleqf.o(x$fpl$frleqf) for __aeabi_cfrcmple
    mileage.o(.text) refers to faddsub_noclz.o(x$fpl$fsub) for __aeabi_fsub
    mileage.o(.text) refers to sin.o(i.sin) for sin
    mileage.o(.text) refers to cos.o(i.cos) for cos
    mileage.o(.text) refers to daddsub_noclz.o(x$fpl$dadd) for __aeabi_dadd
    mileage.o(.text) refers to sqrt.o(i.sqrt) for sqrt
    mileage.o(.text) refers to fmul.o(x$fpl$fmul) for __aeabi_fmul
    mileage.o(.text) refers to ffixu.o(x$fpl$ffixu) for __aeabi_f2uiz
    mileage.o(.text) refers to mileage.o(.data) for MileageSem
    mileage.o(.text) refers to mileage.o(.bss) for CN_st_Mileage_Par_Oper
    mileage.o(.text) refers to _ascnumber.o(.constdata) for CN_st_Fun_AscNumber
    mileage.o(.text) refers to _rtc.o(.constdata) for CN_st_Fun_RTC
    mileage.o(.text) refers to mileage.o(.constdata) for CN_st_Sensor_Par2Type
    mileage.o(.text) refers to _date.o(.constdata) for CN_st_Fun_Date
    mileage.o(.constdata) refers to mileage.o(.text) for Init
    gprstzxy.o(.text) refers to os_sem.o(.text) for OSSemCreate
    gprstzxy.o(.text) refers to gprstzxy.o(.data) for GprsSem
    gprstzxy.o(.text) refers to gprs.o(.constdata) for CN_st_Fun_Gprs
    gprstzxy.o(.constdata) refers to gprstzxy.o(.text) for Init
    uarttzxy.o(.text) refers to os_sem.o(.text) for OSSemCreate
    uarttzxy.o(.text) refers to target.o(.text) for WatchDog
    uarttzxy.o(.text) refers to uarttzxy.o(.data) for GprsSem
    uarttzxy.o(.text) refers to uarttzxy.o(.constdata) for .constdata
    uarttzxy.o(.text) refers to _uart.o(.constdata) for CN_st_Fun_Uart
    uarttzxy.o(.text) refers to _ascnumber.o(.constdata) for CN_st_Fun_AscNumber
    uarttzxy.o(.constdata) refers to uarttzxy.o(.text) for Init
    arealrm.o(.text) refers to os_sem.o(.text) for OSSemCreate
    arealrm.o(.text) refers to fflt_noclz.o(x$fpl$ffltu) for __aeabi_ui2f
    arealrm.o(.text) refers to f2d.o(x$fpl$f2d) for __aeabi_f2d
    arealrm.o(.text) refers to ddiv.o(x$fpl$ddiv) for __aeabi_ddiv
    arealrm.o(.text) refers to d2f.o(x$fpl$d2f) for __aeabi_d2f
    arealrm.o(.text) refers to dmul.o(x$fpl$dmul) for __aeabi_dmul
    arealrm.o(.text) refers to frleqf.o(x$fpl$frleqf) for __aeabi_cfrcmple
    arealrm.o(.text) refers to faddsub_noclz.o(x$fpl$fsub) for __aeabi_fsub
    arealrm.o(.text) refers to sin.o(i.sin) for sin
    arealrm.o(.text) refers to cos.o(i.cos) for cos
    arealrm.o(.text) refers to daddsub_noclz.o(x$fpl$dadd) for __aeabi_dadd
    arealrm.o(.text) refers to sqrt.o(i.sqrt) for sqrt
    arealrm.o(.text) refers to fmul.o(x$fpl$fmul) for __aeabi_fmul
    arealrm.o(.text) refers to ffixu.o(x$fpl$ffixu) for __aeabi_f2uiz
    arealrm.o(.text) refers to arealrm.o(.data) for ArealrmSem
    arealrm.o(.text) refers to arealrm.o(.bss) for CN_st_Arealrm_Par_Oper
    arealrm.o(.text) refers to _rtc.o(.constdata) for CN_st_Fun_RTC
    arealrm.o(.text) refers to arealrm.o(.constdata) for CN_st_Sensor_Par2Type
    arealrm.o(.text) refers to _ascnumber.o(.constdata) for CN_st_Fun_AscNumber
    arealrm.o(.text) refers to _date.o(.constdata) for CN_st_Fun_Date
    arealrm.o(.constdata) refers to arealrm.o(.text) for Init
    help.o(.text) refers to os_sem.o(.text) for OSSemCreate
    help.o(.text) refers to help.o(.data) for ACCSem
    help.o(.text) refers to _rtc.o(.constdata) for CN_st_Fun_RTC
    help.o(.text) refers to _ascnumber.o(.constdata) for CN_st_Fun_AscNumber
    help.o(.text) refers to _date.o(.constdata) for CN_st_Fun_Date
    help.o(.constdata) refers to help.o(.text) for Init
    onoroff.o(.text) refers to os_sem.o(.text) for OSSemCreate
    onoroff.o(.text) refers to onoroff.o(.data) for ACCSem
    onoroff.o(.text) refers to _ascnumber.o(.constdata) for CN_st_Fun_AscNumber
    onoroff.o(.text) refers to _date.o(.constdata) for CN_st_Fun_Date
    onoroff.o(.constdata) refers to onoroff.o(.text) for Init
    adc1.o(.text) refers to os_sem.o(.text) for OSSemCreate
    adc1.o(.text) refers to adc1.o(.data) for OilSem
    adc1.o(.text) refers to adc1.o(.constdata) for .constdata
    adc1.o(.text) refers to adchard.o(.constdata) for CN_st_Fun_Adc
    adc1.o(.constdata) refers to adc1.o(.text) for Init
    smstzxy.o(.text) refers to os_sem.o(.text) for OSSemCreate
    smstzxy.o(.text) refers to aeabi_sdiv.o(.text) for __aeabi_idivmod
    smstzxy.o(.text) refers to os_time.o(.text) for OSTimeDly
    smstzxy.o(.text) refers to smstzxy.o(.data) for SmsSem
    smstzxy.o(.text) refers to _ascnumber.o(.constdata) for CN_st_Fun_AscNumber
    smstzxy.o(.text) refers to smstzxy.o(.bss) for AgreeBuf
    smstzxy.o(.text) refers to gprs.o(.constdata) for CN_st_Fun_Gprs
    smstzxy.o(.constdata) refers to smstzxy.o(.text) for Init
    _rwfile.o(.text) refers to os_sem.o(.text) for OSSemCreate
    _rwfile.o(.text) refers to strlen.o(.text) for strlen
    _rwfile.o(.text) refers to rt_memclr_w.o(.text) for __aeabi_memclr4
    _rwfile.o(.text) refers to aeabi_sdiv.o(.text_udiv) for __aeabi_uidivmod
    _rwfile.o(.text) refers to aeabi_sdiv.o(.text) for __aeabi_idivmod
    _rwfile.o(.text) refers to _rwfile.o(.data) for ptst_Data_FileBuf
    _rwfile.o(.text) refers to _rwflashlgc.o(.constdata) for CN_st_Fun_NorFlash
    _rwfile.o(.text) refers to _arithmetic.o(.constdata) for CN_st_Fun_Arithmetic
    _rwfile.o(.text) refers to _rwflashlgc.o(.bss) for CN_st_NorFlash
    _rwfile.o(.text) refers to aeabi_memset.o(.text) for __aeabi_memset
    _rwfile.o(.constdata) refers to _rwfile.o(.text) for Init1
    _rwfile.o(.data) refers to _rwfile.o(.bss) for CN_st_Data_FileBuf
    _downfile.o(.text) refers to os_sem.o(.text) for OSSemCreate
    _downfile.o(.text) refers to _downfile.o(.data) for DownFileSem
    _downfile.o(.text) refers to _downfile.o(.bss) for CN_st_DownFile_BufFd
    _downfile.o(.text) refers to _rwfile.o(.constdata) for CN_st_Fun_File
    _downfile.o(.constdata) refers to _downfile.o(.text) for Init
    sensorcontr.o(.text) refers to os_sem.o(.text) for OSSemPend
    sensorcontr.o(.text) refers to target.o(.text) for WatchDog
    sensorcontr.o(.text) refers to os_time.o(.text) for OSTimeDly
    sensorcontr.o(.text) refers to os_task.o(.text) for OSTaskCreate
    sensorcontr.o(.text) refers to sensorcontr.o(.data) for SensorContrSem
    sensorcontr.o(.text) refers to _rtc.o(.constdata) for CN_st_Fun_RTC
    sensorcontr.o(.text) refers to sensorcontr.o(.bss) for CN_st_Affair_Sensor_OperData
    sensorcontr.o(.text) refers to sensor.o(.constdata) for CN_st_Fun_Sensor
    sensorcontr.o(.text) refers to _ascnumber.o(.constdata) for CN_st_Fun_AscNumber
    sensorcontr.o(.text) refers to sensorcontr.o(.constdata) for CN_Ba_st_Affair_Sensor
    sensorcontr.o(.constdata) refers to sensorcontr.o(.text) for Init
    gprs.o(.text) refers to os_sem.o(.text) for OSSemPost
    gprs.o(.text) refers to _ascnumber.o(.constdata) for CN_st_Fun_AscNumber
    gprs.o(.text) refers to gprshard.o(.constdata) for CN_st_Fun_GprsHard
    gprs.o(.text) refers to gprs.o(.data) for ptst_Data_Gprs_Call
    gprs.o(.text) refers to gprs.o(.bss) for CN_st_Affair_Gprs
    gprs.o(.text) refers to gprs.o(.constdata) for CN_LinkNumber
    gprs.o(.text) refers to _rwfile.o(.constdata) for CN_st_Fun_File
    gprs.o(.text) refers to _ascnumber.o(.data) for CN_st_File_GBK
    gprs.o(.text) refers to os_time.o(.text) for OSTimeDly
    gprs.o(.text) refers to target.o(.text) for WatchDog
    gprs.o(.text) refers to os_task.o(.text) for OSTaskCreate
    gprs.o(.text) refers to _date.o(.constdata) for CN_st_Fun_Date
    gprs.o(.text) refers to _rtc.o(.constdata) for CN_st_Fun_RTC
    gprs.o(.constdata) refers to gprs.o(.text) for Init
    timer.o(.text) refers to os_sem.o(.text) for OSSemPend
    timer.o(.text) refers to target.o(.text) for WatchDog
    timer.o(.text) refers to os_time.o(.text) for OSTimeDly
    timer.o(.text) refers to os_task.o(.text) for OSTaskCreate
    timer.o(.text) refers to timer.o(.data) for TimerSem
    timer.o(.text) refers to _ascnumber.o(.constdata) for CN_st_Fun_AscNumber
    timer.o(.text) refers to _date.o(.constdata) for CN_st_Fun_Date
    timer.o(.text) refers to _rtc.o(.constdata) for CN_st_Fun_RTC
    timer.o(.text) refers to timer.o(.bss) for CN_st_Control_Timer
    timer.o(.constdata) refers to timer.o(.text) for Init
    photo.o(.text) refers to os_time.o(.text) for OSTimeDly
    photo.o(.text) refers to _ascnumber.o(.constdata) for CN_st_Fun_AscNumber
    photo.o(.text) refers to _uart.o(.constdata) for CN_st_Fun_Uart
    photo.o(.text) refers to target.o(.text) for WatchDog
    photo.o(.text) refers to os_q.o(.text) for OSQPend
    photo.o(.text) refers to os_mbox.o(.text) for OSMboxPost
    photo.o(.text) refers to os_task.o(.text) for OSTaskCreate
    photo.o(.text) refers to _rwfile.o(.constdata) for CN_st_Fun_File
    photo.o(.text) refers to photo.o(.data) for Photo_Q
    photo.o(.text) refers to photo.o(.bss) for PhotoBuf
    photo.o(.text) refers to photo.o(.constdata) for .constdata
    photo.o(.constdata) refers to photo.o(.text) for Init
    gpsandmileage.o(.text) refers to os_sem.o(.text) for OSSemPost
    gpsandmileage.o(.text) refers to target.o(.text) for WatchDog
    gpsandmileage.o(.text) refers to os_time.o(.text) for OSTimeDly
    gpsandmileage.o(.text) refers to os_task.o(.text) for OSTaskCreate
    gpsandmileage.o(.text) refers to gpsandmileage.o(.bss) for CN_st_GpsAndMileage_OperData
    gpsandmileage.o(.text) refers to gpsandmileage.o(.data) for GpsAndMileageUseSem
    gpsandmileage.o(.text) refers to sensor.o(.constdata) for CN_st_Fun_Sensor
    gpsandmileage.o(.text) refers to _ascnumber.o(.constdata) for CN_st_Fun_AscNumber
    gpsandmileage.o(.constdata) refers to gpsandmileage.o(.text) for Init
    ftp.o(.text) refers to os_q.o(.text) for OSQQuery
    ftp.o(.text) refers to os_mbox.o(.text) for OSMboxPend
    ftp.o(.text) refers to ftp.o(.bss) for CN_st_Ftp_RunState
    ftp.o(.text) refers to gprs.o(.constdata) for CN_st_Fun_Gprs
    ftp.o(.text) refers to _downfile.o(.constdata) for CN_st_Fun_DownFile
    ftp.o(.text) refers to ftp.o(.data) for DownFileFd
    ftp.o(.text) refers to _ascnumber.o(.constdata) for CN_st_Fun_AscNumber
    ftp.o(.text) refers to target.o(.text) for WatchDog
    ftp.o(.text) refers to os_task.o(.text) for OSTaskCreate
    ftp.o(.text) refers to _rwfile.o(.constdata) for CN_st_Fun_File
    ftp.o(.text) refers to ftp.o(.constdata) for CN_st_Ftp_CMD
    ftp.o(.constdata) refers to ftp.o(.text) for FTP_CtrReceive
    ftp.o(.constdata) refers to ftp.o(.conststring) for .conststring
    tz_agreen.o(.text) refers to _filedata.o(.text) for FileData_BackSet
    tz_agreen.o(.text) refers to _ascnumber.o(.constdata) for CN_st_Fun_AscNumber
    tz_agreen.o(.text) refers to tzv2.1.o(.constdata) for CN_Ba_WordPar
    tz_agreen.o(.text) refers to tz_agreen.o(.data) for ptFun
    tz_agreen.o(.text) refers to target.o(.text) for WatchDog
    tz_agreen.o(.text) refers to tz_agreen.o(.constdata) for CN_Ba_st_Tz_Agreen_FunOper
    tz_agreen.o(.text) refers to aeabi_memset.o(.text) for __aeabi_memset
    tz_agreen.o(.constdata) refers to tz_agreen.o(.text) for Explain_Answer
    tz_send.o(.text) refers to aeabi_sdiv.o(.text) for __aeabi_idivmod
    tz_send.o(.text) refers to _ascnumber.o(.constdata) for CN_st_Fun_AscNumber
    tz_send.o(.text) refers to tzv2.1.o(.constdata) for CN_Ba_WordPar
    tz_send.o(.text) refers to aeabi_sdiv.o(.text_udiv) for __aeabi_uidivmod
    tz_send.o(.text) refers to aeabi_memset.o(.text) for __aeabi_memset
    tz_send.o(.text) refers to target.o(.text) for WatchDog
    tz_send.o(.text) refers to tz_send.o(.constdata) for CN_Ba_st_Tz_Send_FunOper
    tz_send.o(.constdata) refers to tz_send.o(.text) for Explain_GetSeverComPar
    tzv2.1.o(.text) refers to os_sem.o(.text) for OSSemPend
    tzv2.1.o(.text) refers to target.o(.text) for WatchDog
    tzv2.1.o(.text) refers to os_time.o(.text) for OSTimeDly
    tzv2.1.o(.text) refers to os_task.o(.text) for OSTaskCreate
    tzv2.1.o(.text) refers to tzv2.1.o(.data) for State
    tzv2.1.o(.text) refers to tzv2.1.o(.bss) for CN_st_AgreeOn_OpenPar
    tzv2.1.o(.text) refers to sensor.o(.constdata) for CN_st_Fun_Sensor
    tzv2.1.o(.text) refers to _ascnumber.o(.constdata) for CN_st_Fun_AscNumber
    tzv2.1.o(.text) refers to tz_agreen.o(.constdata) for CN_st_Fun_Tz_Agreen
    tzv2.1.o(.text) refers to _date.o(.constdata) for CN_st_Fun_Date
    tzv2.1.o(.text) refers to tz_send.o(.constdata) for CN_st_Fun_Tz_Send
    tzv2.1.o(.text) refers to tzv2.1.o(.constdata) for CN_Ba_Order2Answer
    tzv2.1.o(.text) refers to _rtc.o(.constdata) for CN_st_Fun_RTC
    tzv2.1.o(.constdata) refers to tzv2.1.o(.text) for Init
    _nandflash512.o(.constdata) refers to _nandflash512.o(.text) for Init
    _spiflash512.o(.text) refers to _spi.o(.constdata) for CN_st_Fun_Spi
    _spiflash512.o(.constdata) refers to _spiflash512.o(.text) for Init
    _flash.o(.text) refers to aeabi_sdiv.o(.text_udiv) for __aeabi_uidivmod
    _flash.o(.text) refers to aeabi_sdiv.o(.text) for __aeabi_idivmod
    _flash.o(.constdata) refers to _flash.o(.conststring) for .conststring
    _flash.o(.constdata) refers to _nandflash512.o(.constdata) for CN_NandFlash512_st_Fun_PhyFlash
    _flash.o(.constdata) refers to _spiflash512.o(.constdata) for CN_Spi_st_Fun_PhyFlash
    _flash.o(.constdata) refers to _flash.o(.text) for Open
    _rwflashlgc.o(.text) refers to aeabi_sdiv.o(.text_udiv) for __aeabi_uidivmod
    _rwflashlgc.o(.text) refers to _rwflashlgc.o(.bss) for CN_st_NorFlash
    _rwflashlgc.o(.text) refers to _flash.o(.constdata) for CN_st_Flash_Chip_Features
    _rwflashlgc.o(.text) refers to _rwflashlgc.o(.data) for X_BUF
    _rwflashlgc.o(.constdata) refers to _rwflashlgc.o(.text) for Open
    _filedata.o(.text) refers to target.o(.text) for WatchDog
    _filedata.o(.text) refers to _rwfile.o(.constdata) for CN_st_Fun_File
    _filedata.o(.text) refers to _filedata.o(.constdata) for CN_Ba_st_File_fd_Tabel
    _filedata.o(.constdata) refers to _filedata.o(.bss) for CN_st_File_fd
    _filedata.o(.constdata) refers to _filedata.o(.conststring) for .conststring
    takedata.o(.text) refers to aeabi_sdiv.o(.text) for __aeabi_idivmod
    takedata.o(.text) refers to target.o(.text) for WatchDog
    takedata.o(.text) refers to aeabi_sdiv.o(.text_udiv) for __aeabi_uidivmod
    takedata.o(.text) refers to os_mbox.o(.text) for OSMboxCreate
    takedata.o(.text) refers to os_q.o(.text) for OSQPost
    takedata.o(.text) refers to _filedata.o(.bss) for CN_st_File_fd
    takedata.o(.text) refers to _rwfile.o(.constdata) for CN_st_Fun_File
    takedata.o(.text) refers to _ascnumber.o(.constdata) for CN_st_Fun_AscNumber
    takedata.o(.text) refers to tz_send.o(.constdata) for CN_st_Fun_Tz_Send
    takedata.o(.text) refers to _rtc.o(.constdata) for CN_st_Fun_RTC
    takedata.o(.text) refers to photo.o(.data) for Photo_Q
    takedata.o(.constdata) refers to takedata.o(.text) for ReadFlow
    appsendagreeon.o(.text) refers to _filedata.o(.bss) for CN_st_File_fd
    appsendagreeon.o(.text) refers to _rwfile.o(.constdata) for CN_st_Fun_File
    appsendagreeon.o(.text) refers to _ascnumber.o(.constdata) for CN_st_Fun_AscNumber
    appsendagreeon.o(.text) refers to appsendagreeon.o(.constdata) for CN_st_Less_Space
    appsendagreeon.o(.text) refers to target.o(.text) for WatchDog
    appsendagreeon.o(.text) refers to aeabi_sdiv.o(.text_udiv) for __aeabi_uidivmod
    appsendagreeon.o(.text) refers to appsendagreeon.o(.bss) for CN_Pu_st_st_AgreeOn_Dev_WritePar
    appsendagreeon.o(.text) refers to tzv2.1.o(.constdata) for CN_st_Fun_Tzv21
    appsendagreeon.o(.text) refers to takedata.o(.constdata) for CN_st_Fun_TakeData
    appsendagreeon.o(.text) refers to tz_send.o(.constdata) for CN_st_Fun_Tz_Send
    appsendagreeon.o(.text) refers to os_mbox.o(.text) for OSMboxPend
    appsendagreeon.o(.text) refers to os_sem.o(.text) for OSSemPost
    appsendagreeon.o(.text) refers to os_task.o(.text) for OSTaskCreate
    appsendagreeon.o(.text) refers to appsendagreeon.o(.data) for CN_Box_AppSend
    appsendagreeon.o(.text) refers to openandclose.o(.constdata) for CN_st_Fun_OpenAndClose
    appsendagreeon.o(.text) refers to aeabi_memset.o(.text) for __aeabi_memset
    appsendagreeon.o(.constdata) refers to appsendagreeon.o(.text) for LogInfor
    appgprs.o(.text) refers to _filedata.o(.bss) for CN_st_File_fd
    appgprs.o(.text) refers to _rwfile.o(.constdata) for CN_st_Fun_File
    appgprs.o(.text) refers to _ascnumber.o(.constdata) for CN_st_Fun_AscNumber
    appgprs.o(.text) refers to appgprs.o(.data) for CN_LessPar
    appgprs.o(.text) refers to target.o(.text) for WatchDog
    appgprs.o(.text) refers to aeabi_memset.o(.text) for __aeabi_memset
    appgprs.o(.text) refers to aeabi_sdiv.o(.text_udiv) for __aeabi_uidivmod
    appgprs.o(.text) refers to os_q.o(.text) for OSQPost
    appgprs.o(.text) refers to appgprs.o(.constdata) for CN_Ba_st_AppGprs_Order_Set
    appgprs.o(.text) refers to tzv2.1.o(.constdata) for CN_st_Fun_Tzv21
    appgprs.o(.text) refers to appsendagreeon.o(.constdata) for CN_st_Fun_AppSendAgreeOn
    appgprs.o(.text) refers to timer.o(.constdata) for CN_st_Fun_Timer
    appgprs.o(.text) refers to openandclose.o(.data) for LogTimerfd
    appgprs.o(.text) refers to takedata.o(.constdata) for CN_st_Fun_TakeData
    appgprs.o(.text) refers to sensor.o(.constdata) for CN_st_Fun_Sensor
    appgprs.o(.text) refers to gprs.o(.constdata) for CN_st_Fun_Gprs
    appgprs.o(.text) refers to appgprs.o(.bss) for CN_st_BoxData_UpData
    appgprs.o(.text) refers to updatesoftware.o(.data) for UpDateSoftWare_Q
    appgprs.o(.constdata) refers to appgprs.o(.text) for AgreeData
    opensensor.o(.text) refers to target.o(.text) for WatchDog
    opensensor.o(.text) refers to _filedata.o(.bss) for CN_st_File_fd
    opensensor.o(.text) refers to _rwfile.o(.constdata) for CN_st_Fun_File
    opensensor.o(.text) refers to tzv2.1.o(.constdata) for CN_Ba_WordPar
    opensensor.o(.text) refers to sensor.o(.constdata) for CN_st_Fun_Sensor
    opensensor.o(.text) refers to opensensor.o(.constdata) for CN_Ba_OutPar
    opensensor.o(.text) refers to _ascnumber.o(.constdata) for CN_st_Fun_AscNumber
    opensensor.o(.text) refers to appagreedatasensor.o(.constdata) for CN_st_Fun_AppAgreeDataSensor
    opensensor.o(.constdata) refers to opensensor.o(.text) for Init
    accoper.o(.text) refers to target.o(.text) for WatchDog
    accoper.o(.text) refers to _ascnumber.o(.constdata) for CN_st_Fun_AscNumber
    accoper.o(.text) refers to _date.o(.constdata) for CN_st_Fun_Date
    accoper.o(.text) refers to _rtc.o(.constdata) for CN_st_Fun_RTC
    accoper.o(.text) refers to accoper.o(.bss) for EndTimerNumber
    accoper.o(.text) refers to _filedata.o(.bss) for CN_st_File_fd
    accoper.o(.text) refers to _rwfile.o(.constdata) for CN_st_Fun_File
    accoper.o(.text) refers to accoper.o(.constdata) for CN_Ba_TimerPar_Term
    accoper.o(.text) refers to appsendagreeon.o(.constdata) for CN_st_Fun_AppSendAgreeOn
    accoper.o(.text) refers to openandclose.o(.constdata) for CN_st_Fun_OpenAndClose
    accoper.o(.text) refers to accoper.o(.data) for AccUse
    accoper.o(.constdata) refers to accoper.o(.text) for AccOper
    accoper.o(.constdata) refers to accoper.o(.bss) for EndTimerNumber
    appagreedatasensor.o(.text) refers to target.o(.text) for WatchDog
    appagreedatasensor.o(.text) refers to appagreedatasensor.o(.constdata) for .constdata
    appagreedatasensor.o(.text) refers to sensorcontr.o(.constdata) for CN_st_Fun_SensorContr
    appagreedatasensor.o(.text) refers to displayoper.o(.constdata) for CN_st_Fun_DisPlayOper
    appagreedatasensor.o(.text) refers to _rtc.o(.constdata) for CN_st_Fun_RTC
    appagreedatasensor.o(.text) refers to appagreedatasensor.o(.data) for BackDateTimer
    appagreedatasensor.o(.text) refers to _filedata.o(.bss) for App_CN_st_WorkFlow_Table
    appagreedatasensor.o(.text) refers to openandclose.o(.constdata) for CN_st_Fun_OpenAndClose
    appagreedatasensor.o(.text) refers to _rwfile.o(.constdata) for CN_st_Fun_File
    appagreedatasensor.o(.text) refers to takedata.o(.constdata) for CN_st_Fun_TakeData
    appagreedatasensor.o(.text) refers to appsendagreeon.o(.constdata) for CN_st_Fun_AppSendAgreeOn
    appagreedatasensor.o(.text) refers to _ascnumber.o(.constdata) for CN_st_Fun_AscNumber
    appagreedatasensor.o(.text) refers to _date.o(.constdata) for CN_st_Fun_Date
    appagreedatasensor.o(.text) refers to accoper.o(.constdata) for CN_st_Fun_AccOper
    appagreedatasensor.o(.text) refers to tzv2.1.o(.constdata) for CN_Ba_WordPar
    appagreedatasensor.o(.text) refers to jugeoper.o(.constdata) for CN_st_Fun_JugeOper
    appagreedatasensor.o(.constdata) refers to _filedata.o(.bss) for App_CN_st_WorkFlow_Table
    appagreedatasensor.o(.constdata) refers to appagreedatasensor.o(.text) for Init
    space.o(.text) refers to space.o(.constdata) for .constdata
    space.o(.text) refers to space.o(.data) for CN_st_RunLen_Affair_fd
    space.o(.text) refers to gpsandmileage.o(.constdata) for CN_st_Fun_RunLen
    space.o(.text) refers to _filedata.o(.bss) for CN_st_File_fd
    space.o(.text) refers to _rwfile.o(.constdata) for CN_st_Fun_File
    space.o(.text) refers to _ascnumber.o(.constdata) for CN_st_Fun_AscNumber
    space.o(.text) refers to _rtc.o(.constdata) for CN_st_Fun_RTC
    space.o(.text) refers to openandclose.o(.constdata) for CN_st_Fun_OpenAndClose
    space.o(.text) refers to takedata.o(.constdata) for CN_st_Fun_TakeData
    space.o(.text) refers to appsendagreeon.o(.constdata) for CN_st_Fun_AppSendAgreeOn
    space.o(.text) refers to _date.o(.constdata) for CN_st_Fun_Date
    space.o(.text) refers to jugeoper.o(.constdata) for CN_st_Fun_JugeOper
    space.o(.constdata) refers to space.o(.text) for InitSpace
    jugeoper.o(.text) refers to jugeoper.o(.constdata) for CN_Ba_st_Juge_void
    jugeoper.o(.text) refers to _ascnumber.o(.constdata) for CN_st_Fun_AscNumber
    jugeoper.o(.text) refers to _rwfile.o(.constdata) for CN_st_Fun_File
    jugeoper.o(.text) refers to _filedata.o(.bss) for App_CN_st_WorkFlow_Table
    jugeoper.o(.text) refers to takedata.o(.constdata) for CN_st_Fun_TakeData
    jugeoper.o(.text) refers to appsendagreeon.o(.constdata) for CN_st_Fun_AppSendAgreeOn
    jugeoper.o(.constdata) refers to jugeoper.o(.text) for Juge
    jugeoper.o(.constdata) refers to _filedata.o(.bss) for App_CN_st_WorkFlow_Table
    warningupate.o(.text) refers to os_time.o(.text) for OSTimeDly
    warningupate.o(.text) refers to target.o(.text) for WatchDog
    warningupate.o(.text) refers to os_task.o(.text) for OSTaskCreate
    warningupate.o(.text) refers to sensor.o(.constdata) for CN_st_Fun_Sensor
    warningupate.o(.text) refers to _filedata.o(.bss) for App_CN_st_WorkFlow_Table
    warningupate.o(.text) refers to warningupate.o(.constdata) for CN_Ba_st_Data_Number2Point
    warningupate.o(.text) refers to takedata.o(.constdata) for CN_st_Fun_TakeData
    warningupate.o(.text) refers to appsendagreeon.o(.constdata) for CN_st_Fun_AppSendAgreeOn
    warningupate.o(.text) refers to _rwfile.o(.constdata) for CN_st_Fun_File
    warningupate.o(.text) refers to tzv2.1.o(.constdata) for CN_Ba_WordPar
    warningupate.o(.text) refers to gprs.o(.constdata) for CN_st_Fun_Gprs
    warningupate.o(.text) refers to jugeoper.o(.constdata) for CN_st_Fun_JugeOper
    warningupate.o(.text) refers to warningupate.o(.data) for Stk
    warningupate.o(.constdata) refers to _filedata.o(.bss) for App_CN_st_WorkFlow_Table
    warningupate.o(.constdata) refers to warningupate.o(.text) for Init
    displayoper.o(.text) refers to target.o(.text) for WatchDog
    displayoper.o(.text) refers to timer.o(.constdata) for CN_st_Fun_Timer
    displayoper.o(.text) refers to displayoper.o(.data) for DisTimerfd
    displayoper.o(.text) refers to displayoper.o(.constdata) for CN_Ba_Display
    displayoper.o(.text) refers to sensor.o(.constdata) for CN_st_Fun_Sensor
    displayoper.o(.text) refers to gprs.o(.constdata) for CN_st_Fun_Gprs
    displayoper.o(.text) refers to display.o(.constdata) for CN_st_Display_Par_Set
    displayoper.o(.text) refers to _rwfile.o(.constdata) for CN_st_Fun_File
    displayoper.o(.text) refers to _ascnumber.o(.constdata) for CN_st_Fun_AscNumber
    displayoper.o(.text) refers to openandclose.o(.data) for LogTimerfd
    displayoper.o(.text) refers to _filedata.o(.bss) for CN_st_File_fd
    displayoper.o(.constdata) refers to _filedata.o(.bss) for CN_st_File_fd
    displayoper.o(.constdata) refers to displayoper.o(.text) for Order_Phone
    messageandphone.o(.text) refers to rt_memcpy_w.o(.text) for __aeabi_memcpy4
    messageandphone.o(.text) refers to messageandphone.o(.constdata) for .constdata
    messageandphone.o(.text) refers to gprs.o(.constdata) for CN_st_Fun_Gprs
    messageandphone.o(.text) refers to timer.o(.constdata) for CN_st_Fun_Timer
    messageandphone.o(.text) refers to messageandphone.o(.data) for ClosePhTimerfd
    messageandphone.o(.text) refers to _ascnumber.o(.constdata) for CN_st_Fun_AscNumber
    messageandphone.o(.text) refers to sensor.o(.constdata) for CN_st_Fun_Sensor
    messageandphone.o(.text) refers to openandclose.o(.constdata) for CN_st_Fun_OpenAndClose
    messageandphone.o(.text) refers to _filedata.o(.bss) for CN_st_File_fd
    messageandphone.o(.text) refers to _rwfile.o(.constdata) for CN_st_Fun_File
    messageandphone.o(.text) refers to tzv2.1.o(.constdata) for CN_st_Fun_Tzv21
    messageandphone.o(.text) refers to appsendagreeon.o(.constdata) for CN_st_Fun_AppSendAgreeOn
    messageandphone.o(.constdata) refers to messageandphone.o(.text) for Init
    logonserver.o(.text) refers to rt_memcpy_w.o(.text) for __aeabi_memcpy4
    logonserver.o(.text) refers to os_time.o(.text) for OSTimeDly
    logonserver.o(.text) refers to target.o(.text) for WatchDog
    logonserver.o(.text) refers to os_mbox.o(.text) for OSMboxPend
    logonserver.o(.text) refers to os_task.o(.text) for OSTaskCreate
    logonserver.o(.text) refers to logonserver.o(.constdata) for .constdata
    logonserver.o(.text) refers to _filedata.o(.bss) for CN_st_File_fd
    logonserver.o(.text) refers to _rwfile.o(.constdata) for CN_st_Fun_File
    logonserver.o(.text) refers to _ascnumber.o(.constdata) for CN_st_Fun_AscNumber
    logonserver.o(.text) refers to sensor.o(.constdata) for CN_st_Fun_Sensor
    logonserver.o(.text) refers to logonserver.o(.data) for CN_st_SmsLink_State
    logonserver.o(.text) refers to appgprs.o(.constdata) for CN_st_Fun_AppGprs
    logonserver.o(.text) refers to tzv2.1.o(.constdata) for CN_st_Fun_Tzv21
    logonserver.o(.text) refers to gprs.o(.constdata) for CN_st_Fun_Gprs
    logonserver.o(.text) refers to _date.o(.constdata) for CN_st_Fun_Date
    logonserver.o(.text) refers to tz_send.o(.constdata) for CN_st_Fun_Tz_Send
    logonserver.o(.text) refers to _rtc.o(.constdata) for CN_st_Fun_RTC
    logonserver.o(.text) refers to tz_agreen.o(.constdata) for CN_st_Fun_Tz_Agreen
    logonserver.o(.text) refers to logonserver.o(.bss) for CN_st_BoxData_LogOnServer
    logonserver.o(.constdata) refers to logonserver.o(.text) for Init
    openandclose.o(.text) refers to os_mbox.o(.text) for OSMboxCreate
    openandclose.o(.text) refers to os_sem.o(.text) for OSSemQuery
    openandclose.o(.text) refers to rt_memcpy_w.o(.text) for __aeabi_memcpy4
    openandclose.o(.text) refers to timer.o(.constdata) for CN_st_Fun_Timer
    openandclose.o(.text) refers to openandclose.o(.data) for Timerfd
    openandclose.o(.text) refers to openandclose.o(.constdata) for CN_Ba_st_Affair_Timer
    openandclose.o(.text) refers to openandclose.o(.bss) for CN_st_BoxData_LogOnServer
    openandclose.o(.text) refers to sensor.o(.constdata) for CN_st_Fun_Sensor
    openandclose.o(.text) refers to tzv2.1.o(.constdata) for CN_st_Fun_Tzv21
    openandclose.o(.text) refers to appsendagreeon.o(.constdata) for CN_st_Fun_AppSendAgreeOn
    openandclose.o(.text) refers to logonserver.o(.data) for LogOnServerBox
    openandclose.o(.text) refers to appgprs.o(.constdata) for CN_st_Fun_AppGprs
    openandclose.o(.text) refers to opensensor.o(.constdata) for CN_st_Fun_OpenSensor
    openandclose.o(.constdata) refers to openandclose.o(.text) for ClearTimer
    openandclose.o(.data) refers to _filedata.o(.bss) for App_CN_st_WorkFlow_Table
    updatesoftware.o(.text) refers to os_q.o(.text) for OSQPend
    updatesoftware.o(.text) refers to os_mbox.o(.text) for OSMboxPost
    updatesoftware.o(.text) refers to target.o(.text) for WatchDog
    updatesoftware.o(.text) refers to os_task.o(.text) for OSTaskCreate
    updatesoftware.o(.text) refers to updatesoftware.o(.data) for UpDataWaitTime
    updatesoftware.o(.text) refers to ftp.o(.constdata) for CN_st_Fun_FTP
    updatesoftware.o(.text) refers to updatesoftware.o(.bss) for CN_st_FTP_WorkState_Now
    updatesoftware.o(.text) refers to ftp.o(.data) for FtpQbox
    updatesoftware.o(.text) refers to _ascnumber.o(.constdata) for CN_st_Fun_AscNumber
    updatesoftware.o(.data) refers to updatesoftware.o(.text) for Init
    _init.o(.text) refers to _filedata.o(.text) for FileData_CheckFile
    _init.o(.text) refers to os_time.o(.text) for OSTimeDly
    _init.o(.text) refers to os_core.o(.text) for OSInit
    _init.o(.text) refers to target.o(.text) for TargetInit
    _init.o(.text) refers to os_task.o(.text) for OSTaskCreate
    _init.o(.text) refers to _rtc.o(.constdata) for CN_st_Fun_RTC
    _init.o(.text) refers to _rwfile.o(.constdata) for CN_st_Fun_File
    _init.o(.text) refers to _rwflashlgc.o(.bss) for CN_st_NorFlash
    _init.o(.text) refers to _downfile.o(.constdata) for CN_st_Fun_DownFile
    _init.o(.text) refers to timer.o(.constdata) for CN_st_Fun_Timer
    _init.o(.text) refers to messageandphone.o(.constdata) for CN_st_Fun_MessageAndPhone
    _init.o(.text) refers to sensor.o(.constdata) for CN_st_Fun_Sensor
    _init.o(.text) refers to sensorcontr.o(.constdata) for CN_st_Fun_SensorContr
    _init.o(.text) refers to opensensor.o(.constdata) for CN_st_Fun_OpenSensor
    _init.o(.text) refers to gpsandmileage.o(.constdata) for CN_st_Fun_RunLen
    _init.o(.text) refers to space.o(.constdata) for CN_Ba_st_Fun_Space
    _init.o(.text) refers to photo.o(.constdata) for CN_st_Fun_Photo
    _init.o(.text) refers to tzv2.1.o(.constdata) for CN_st_Fun_Tzv21
    _init.o(.text) refers to logonserver.o(.constdata) for CN_st_Fun_LogOnServer
    _init.o(.text) refers to appsendagreeon.o(.constdata) for CN_st_Fun_AppSendAgreeOn
    _init.o(.text) refers to warningupate.o(.constdata) for CN_st_Fun_WarningUpate
    _init.o(.text) refers to openandclose.o(.constdata) for CN_st_Fun_OpenAndClose
    _init.o(.text) refers to gprs.o(.constdata) for CN_st_Fun_Gprs
    _init.o(.text) refers to ftp.o(.constdata) for CN_st_Fun_FTP
    _init.o(.text) refers to updatesoftware.o(.data) for CN_st_Fun_UpdateSoftWare
    _init.o(.text) refers to _init.o(.bss) for TaskStk
    rand.o(.emb_text) refers (Special) to libinit2.o(.ARM.Collect$$libinit$$0000000D) for __rt_lib_init_rand_2
    rand.o(.emb_text) refers to rand.o(.text) for _rand_init
    rand.o(.emb_text) refers to rand.o(.bss) for _random_number_data
    rand.o(.text) refers (Special) to libinit2.o(.ARM.Collect$$libinit$$0000000D) for __rt_lib_init_rand_2
    rand.o(.text) refers to rand.o(.bss) for .bss
    rand.o(.bss) refers (Special) to libinit2.o(.ARM.Collect$$libinit$$0000000D) for __rt_lib_init_rand_2
    aeabi_memset.o(.text) refers to rt_memclr.o(.text) for _memset
    aeabi_sdiv.o(.text_udiv) refers to aeabi_sdiv.o(.text) for __arm_div2
    aeabi_sdiv_div0.o(.text_udiv) refers to aeabi_sdiv_div0.o(.text) for __arm_div2
    __main.o(!!!main) refers to __rtentry.o(.ARM.Collect$$rtentry$$00000000) for __rt_entry
    d2f.o(x$fpl$d2f) refers (Special) to usenofp.o(x$fpl$usenofp) for __I$use$fp
    d2f.o(x$fpl$d2f) refers to fretinf.o(x$fpl$fretinf) for __fpl_fretinf
    d2f.o(x$fpl$d2f) refers to dnaninf.o(x$fpl$dnaninf) for __fpl_dnaninf
    daddsub_noclz.o(x$fpl$dadd) refers (Special) to usenofp.o(x$fpl$usenofp) for __I$use$fp
    daddsub_noclz.o(x$fpl$dadd) refers to daddsub_noclz.o(x$fpl$dsub) for _dsub1
    daddsub_noclz.o(x$fpl$dadd) refers to dretinf.o(x$fpl$dretinf) for __fpl_dretinf
    daddsub_noclz.o(x$fpl$dadd) refers to dnaninf.o(x$fpl$dnaninf) for __fpl_dnaninf
    daddsub_noclz.o(x$fpl$drsb) refers (Special) to usenofp.o(x$fpl$usenofp) for __I$use$fp
    daddsub_noclz.o(x$fpl$drsb) refers to daddsub_noclz.o(x$fpl$dadd) for _dadd1
    daddsub_noclz.o(x$fpl$drsb) refers to daddsub_noclz.o(x$fpl$dsub) for _dsub1
    daddsub_noclz.o(x$fpl$dsub) refers (Special) to usenofp.o(x$fpl$usenofp) for __I$use$fp
    daddsub_noclz.o(x$fpl$dsub) refers to daddsub_noclz.o(x$fpl$dadd) for _dadd1
    daddsub_noclz.o(x$fpl$dsub) refers to dnaninf.o(x$fpl$dnaninf) for __fpl_dnaninf
    ddiv.o(x$fpl$drdiv) refers (Special) to usenofp.o(x$fpl$usenofp) for __I$use$fp
    ddiv.o(x$fpl$drdiv) refers to ddiv.o(x$fpl$ddiv) for ddiv_entry
    ddiv.o(x$fpl$ddiv) refers (Special) to usenofp.o(x$fpl$usenofp) for __I$use$fp
    ddiv.o(x$fpl$ddiv) refers to dretinf.o(x$fpl$dretinf) for __fpl_dretinf
    ddiv.o(x$fpl$ddiv) refers to dnaninf.o(x$fpl$dnaninf) for __fpl_dnaninf
    dmul.o(x$fpl$dmul) refers (Special) to usenofp.o(x$fpl$usenofp) for __I$use$fp
    dmul.o(x$fpl$dmul) refers to dretinf.o(x$fpl$dretinf) for __fpl_dretinf
    dmul.o(x$fpl$dmul) refers to dnaninf.o(x$fpl$dnaninf) for __fpl_dnaninf
    f2d.o(x$fpl$f2d) refers (Special) to usenofp.o(x$fpl$usenofp) for __I$use$fp
    f2d.o(x$fpl$f2d) refers to fnaninf.o(x$fpl$fnaninf) for __fpl_fnaninf
    f2d.o(x$fpl$f2d) refers to dretinf.o(x$fpl$dretinf) for __fpl_dretinf
    faddsub_noclz.o(x$fpl$fadd) refers (Special) to usenofp.o(x$fpl$usenofp) for __I$use$fp
    faddsub_noclz.o(x$fpl$fadd) refers to faddsub_noclz.o(x$fpl$fsub) for _fsub1
    faddsub_noclz.o(x$fpl$fadd) refers to fretinf.o(x$fpl$fretinf) for __fpl_fretinf
    faddsub_noclz.o(x$fpl$fadd) refers to fnaninf.o(x$fpl$fnaninf) for __fpl_fnaninf
    faddsub_noclz.o(x$fpl$frsb) refers (Special) to usenofp.o(x$fpl$usenofp) for __I$use$fp
    faddsub_noclz.o(x$fpl$frsb) refers to faddsub_noclz.o(x$fpl$fadd) for _fadd1
    faddsub_noclz.o(x$fpl$frsb) refers to faddsub_noclz.o(x$fpl$fsub) for _fsub1
    faddsub_noclz.o(x$fpl$fsub) refers (Special) to usenofp.o(x$fpl$usenofp) for __I$use$fp
    faddsub_noclz.o(x$fpl$fsub) refers to faddsub_noclz.o(x$fpl$fadd) for _fadd1
    faddsub_noclz.o(x$fpl$fsub) refers to fnaninf.o(x$fpl$fnaninf) for __fpl_fnaninf
    ffixu.o(x$fpl$ffixu) refers (Special) to usenofp.o(x$fpl$usenofp) for __I$use$fp
    ffixu.o(x$fpl$ffixu) refers to fnaninf.o(x$fpl$fnaninf) for __fpl_fnaninf
    ffixu.o(x$fpl$ffixur) refers (Special) to usenofp.o(x$fpl$usenofp) for __I$use$fp
    ffixu.o(x$fpl$ffixur) refers to fnaninf.o(x$fpl$fnaninf) for __fpl_fnaninf
    fflt_noclz.o(x$fpl$ffltu) refers (Special) to usenofp.o(x$fpl$usenofp) for __I$use$fp
    fflt_noclz.o(x$fpl$ffltu) refers to fflt_noclz.o(x$fpl$fflt) for __fflt_normalise
    fflt_noclz.o(x$fpl$fflt) refers (Special) to usenofp.o(x$fpl$usenofp) for __I$use$fp
    fmul.o(x$fpl$fmul) refers (Special) to usenofp.o(x$fpl$usenofp) for __I$use$fp
    fmul.o(x$fpl$fmul) refers to fretinf.o(x$fpl$fretinf) for __fpl_fretinf
    fmul.o(x$fpl$fmul) refers to fnaninf.o(x$fpl$fnaninf) for __fpl_fnaninf
    frleqf.o(x$fpl$frleqf) refers (Special) to usenofp.o(x$fpl$usenofp) for __I$use$fp
    frleqf.o(x$fpl$frleqf) refers to fleqf.o(x$fpl$fleqf) for __fpl_fcmple_InfNaN
    cos.o(i.__softfp_cos) refers (Special) to usenofp.o(x$fpl$usenofp) for __I$use$fp
    cos.o(i.__softfp_cos) refers to cos.o(i.cos) for cos
    cos.o(i.cos) refers (Special) to usenofp.o(x$fpl$usenofp) for __I$use$fp
    cos.o(i.cos) refers to _rserrno.o(.text) for __set_errno
    cos.o(i.cos) refers to dunder.o(i.__mathlib_dbl_invalid) for __mathlib_dbl_invalid
    cos.o(i.cos) refers to dunder.o(i.__mathlib_dbl_infnan) for __mathlib_dbl_infnan
    cos.o(i.cos) refers to rred.o(i.__ieee754_rem_pio2) for __ieee754_rem_pio2
    cos.o(i.cos) refers to sin_i.o(i.__kernel_sin) for __kernel_sin
    cos.o(i.cos) refers to cos_i.o(i.__kernel_cos) for __kernel_cos
    cos_x.o(i.____softfp_cos$lsc) refers (Special) to usenofp.o(x$fpl$usenofp) for __I$use$fp
    cos_x.o(i.____softfp_cos$lsc) refers to cos_x.o(i.__cos$lsc) for __cos$lsc
    cos_x.o(i.__cos$lsc) refers (Special) to usenofp.o(x$fpl$usenofp) for __I$use$fp
    cos_x.o(i.__cos$lsc) refers to _rserrno.o(.text) for __set_errno
    cos_x.o(i.__cos$lsc) refers to dunder.o(i.__mathlib_dbl_infnan) for __mathlib_dbl_infnan
    cos_x.o(i.__cos$lsc) refers to rred.o(i.__ieee754_rem_pio2) for __ieee754_rem_pio2
    cos_x.o(i.__cos$lsc) refers to sin_i.o(i.__kernel_sin) for __kernel_sin
    cos_x.o(i.__cos$lsc) refers to cos_i.o(i.__kernel_cos) for __kernel_cos
    sin.o(i.__softfp_sin) refers (Special) to usenofp.o(x$fpl$usenofp) for __I$use$fp
    sin.o(i.__softfp_sin) refers to sin.o(i.sin) for sin
    sin.o(i.sin) refers (Special) to usenofp.o(x$fpl$usenofp) for __I$use$fp
    sin.o(i.sin) refers to _rserrno.o(.text) for __set_errno
    sin.o(i.sin) refers to dunder.o(i.__mathlib_dbl_invalid) for __mathlib_dbl_invalid
    sin.o(i.sin) refers to dunder.o(i.__mathlib_dbl_infnan) for __mathlib_dbl_infnan
    sin.o(i.sin) refers to rred.o(i.__ieee754_rem_pio2) for __ieee754_rem_pio2
    sin.o(i.sin) refers to cos_i.o(i.__kernel_cos) for __kernel_cos
    sin.o(i.sin) refers to sin_i.o(i.__kernel_sin) for __kernel_sin
    sin_x.o(i.____softfp_sin$lsc) refers (Special) to usenofp.o(x$fpl$usenofp) for __I$use$fp
    sin_x.o(i.____softfp_sin$lsc) refers to sin_x.o(i.__sin$lsc) for __sin$lsc
    sin_x.o(i.__sin$lsc) refers (Special) to usenofp.o(x$fpl$usenofp) for __I$use$fp
    sin_x.o(i.__sin$lsc) refers to _rserrno.o(.text) for __set_errno
    sin_x.o(i.__sin$lsc) refers to dunder.o(i.__mathlib_dbl_infnan) for __mathlib_dbl_infnan
    sin_x.o(i.__sin$lsc) refers to rred.o(i.__ieee754_rem_pio2) for __ieee754_rem_pio2
    sin_x.o(i.__sin$lsc) refers to cos_i.o(i.__kernel_cos) for __kernel_cos
    sin_x.o(i.__sin$lsc) refers to sin_i.o(i.__kernel_sin) for __kernel_sin
    sqrt.o(i.__softfp_sqrt) refers (Special) to usenofp.o(x$fpl$usenofp) for __I$use$fp
    sqrt.o(i.__softfp_sqrt) refers to dsqrt_noumaal.o(x$fpl$dsqrt) for _dsqrt
    sqrt.o(i.__softfp_sqrt) refers to _rserrno.o(.text) for __set_errno
    sqrt.o(i.sqrt) refers (Special) to usenofp.o(x$fpl$usenofp) for __I$use$fp
    sqrt.o(i.sqrt) refers to dsqrt_noumaal.o(x$fpl$dsqrt) for _dsqrt
    sqrt.o(i.sqrt) refers to _rserrno.o(.text) for __set_errno
    sqrt_x.o(i.____softfp_sqrt$lsc) refers (Special) to usenofp.o(x$fpl$usenofp) for __I$use$fp
    sqrt_x.o(i.____softfp_sqrt$lsc) refers to dleqf.o(x$fpl$dleqf) for __aeabi_cdcmple
    sqrt_x.o(i.____softfp_sqrt$lsc) refers to _rserrno.o(.text) for __set_errno
    sqrt_x.o(i.____softfp_sqrt$lsc) refers to dsqrt_noumaal.o(x$fpl$dsqrt) for _dsqrt
    sqrt_x.o(i.__sqrt$lsc) refers (Special) to usenofp.o(x$fpl$usenofp) for __I$use$fp
    sqrt_x.o(i.__sqrt$lsc) refers to dleqf.o(x$fpl$dleqf) for __aeabi_cdcmple
    sqrt_x.o(i.__sqrt$lsc) refers to _rserrno.o(.text) for __set_errno
    sqrt_x.o(i.__sqrt$lsc) refers to dsqrt_noumaal.o(x$fpl$dsqrt) for _dsqrt
    __rtentry.o(.ARM.Collect$$rtentry$$00000000) refers (Special) to __rtentry2.o(.ARM.Collect$$rtentry$$0000000A) for __rt_entry_li
    __rtentry.o(.ARM.Collect$$rtentry$$00000000) refers (Special) to __rtentry2.o(.ARM.Collect$$rtentry$$0000000D) for __rt_entry_main
    __rtentry.o(.ARM.Collect$$rtentry$$00000000) refers (Special) to __rtentry2.o(.ARM.Collect$$rtentry$$0000000C) for __rt_entry_postli_1
    __rtentry.o(.ARM.Collect$$rtentry$$00000000) refers (Special) to __rtentry2.o(.ARM.Collect$$rtentry$$00000009) for __rt_entry_postsh_1
    __rtentry.o(.ARM.Collect$$rtentry$$00000000) refers (Special) to __rtentry2.o(.ARM.Collect$$rtentry$$00000002) for __rt_entry_presh_1
    __rtentry.o(.ARM.Collect$$rtentry$$00000000) refers (Special) to __rtentry4.o(.ARM.Collect$$rtentry$$00000004) for __rt_entry_sh
    aeabi_idiv0_sigfpe.o(.text) refers to rt_div0.o(.text) for __rt_div0
    _rserrno.o(.text) refers to rt_errno_addr_intlibspace.o(.text) for __aeabi_errno_addr
    rt_memclr.o(.text) refers to rt_memclr_w.o(.text) for _memset_w
    libinit2.o(.ARM.Collect$$libinit$$00000001) refers to fpinit.o(x$fpl$fpinit) for _fp_init
    libinit2.o(.ARM.Collect$$libinit$$0000000D) refers (Weak) to rand.o(.text) for _rand_init
    libinit2.o(.ARM.Collect$$libinit$$00000010) refers to libinit2.o(.ARM.Collect$$libinit$$0000000F) for .ARM.Collect$$libinit$$0000000F
    libinit2.o(.ARM.Collect$$libinit$$00000012) refers to libinit2.o(.ARM.Collect$$libinit$$0000000F) for .ARM.Collect$$libinit$$0000000F
    libinit2.o(.ARM.Collect$$libinit$$00000014) refers to libinit2.o(.ARM.Collect$$libinit$$0000000F) for .ARM.Collect$$libinit$$0000000F
    libinit2.o(.ARM.Collect$$libinit$$00000016) refers to libinit2.o(.ARM.Collect$$libinit$$0000000F) for .ARM.Collect$$libinit$$0000000F
    libinit2.o(.ARM.Collect$$libinit$$00000018) refers to libinit2.o(.ARM.Collect$$libinit$$0000000F) for .ARM.Collect$$libinit$$0000000F
    libinit2.o(.ARM.Collect$$libinit$$00000026) refers to argv_veneer.o(.emb_text) for __ARM_argv_veneer
    libinit2.o(.ARM.Collect$$libinit$$00000027) refers to argv_veneer.o(.emb_text) for __ARM_argv_veneer
    dleqf.o(x$fpl$dleqf) refers (Special) to usenofp.o(x$fpl$usenofp) for __I$use$fp
    dleqf.o(x$fpl$dleqf) refers to dnaninf.o(x$fpl$dnaninf) for __fpl_dnaninf
    dleqf.o(x$fpl$dleqf) refers to dcmpi.o(x$fpl$dcmpinf) for __fpl_dcmp_Inf
    dnaninf.o(x$fpl$dnaninf) refers (Special) to usenofp.o(x$fpl$usenofp) for __I$use$fp
    dretinf.o(x$fpl$dretinf) refers (Special) to usenofp.o(x$fpl$usenofp) for __I$use$fp
    dsqrt_noumaal.o(x$fpl$dsqrt) refers (Special) to usenofp.o(x$fpl$usenofp) for __I$use$fp
    dsqrt_noumaal.o(x$fpl$dsqrt) refers to dnaninf.o(x$fpl$dnaninf) for __fpl_dnaninf
    fleqf.o(x$fpl$fleqf) refers (Special) to usenofp.o(x$fpl$usenofp) for __I$use$fp
    fleqf.o(x$fpl$fleqf) refers to fnaninf.o(x$fpl$fnaninf) for __fpl_fnaninf
    fleqf.o(x$fpl$fleqf) refers to fcmpi.o(x$fpl$fcmpinf) for __fpl_fcmp_Inf
    fnaninf.o(x$fpl$fnaninf) refers (Special) to usenofp.o(x$fpl$usenofp) for __I$use$fp
    fretinf.o(x$fpl$fretinf) refers (Special) to usenofp.o(x$fpl$usenofp) for __I$use$fp
    cos_i.o(i.__kernel_cos) refers (Special) to usenofp.o(x$fpl$usenofp) for __I$use$fp
    cos_i.o(i.__kernel_cos) refers to dfix.o(x$fpl$dfix) for __aeabi_d2iz
    cos_i.o(i.__kernel_cos) refers to dmul.o(x$fpl$dmul) for __aeabi_dmul
    cos_i.o(i.__kernel_cos) refers to poly.o(i.__kernel_poly) for __kernel_poly
    cos_i.o(i.__kernel_cos) refers to daddsub_noclz.o(x$fpl$dsub) for __aeabi_dsub
    cos_i.o(i.__kernel_cos) refers to scalbn.o(x$fpl$scalbn) for __ARM_scalbn
    cos_i.o(i.__kernel_cos) refers to daddsub_noclz.o(x$fpl$drsb) for __aeabi_drsub
    cos_i.o(i.__kernel_cos) refers to cos_i.o(.constdata) for .constdata
    cos_i.o(.constdata) refers (Special) to usenofp.o(x$fpl$usenofp) for __I$use$fp
    dunder.o(i.__mathlib_dbl_divzero) refers to ddiv.o(x$fpl$ddiv) for __aeabi_ddiv
    dunder.o(i.__mathlib_dbl_infnan) refers to scalbn.o(x$fpl$scalbn) for __ARM_scalbn
    dunder.o(i.__mathlib_dbl_infnan2) refers to daddsub_noclz.o(x$fpl$dadd) for __aeabi_dadd
    dunder.o(i.__mathlib_dbl_invalid) refers to ddiv.o(x$fpl$ddiv) for __aeabi_ddiv
    dunder.o(i.__mathlib_dbl_overflow) refers to scalbn.o(x$fpl$scalbn) for __ARM_scalbn
    dunder.o(i.__mathlib_dbl_posinfnan) refers to dmul.o(x$fpl$dmul) for __aeabi_dmul
    dunder.o(i.__mathlib_dbl_underflow) refers to scalbn.o(x$fpl$scalbn) for __ARM_scalbn
    rred.o(i.__ieee754_rem_pio2) refers (Special) to usenofp.o(x$fpl$usenofp) for __I$use$fp
    rred.o(i.__ieee754_rem_pio2) refers to daddsub_noclz.o(x$fpl$dsub) for __aeabi_dsub
    rred.o(i.__ieee754_rem_pio2) refers to daddsub_noclz.o(x$fpl$dadd) for __aeabi_dadd
    rred.o(i.__ieee754_rem_pio2) refers to dmul.o(x$fpl$dmul) for __aeabi_dmul
    rred.o(i.__ieee754_rem_pio2) refers to dfix.o(x$fpl$dfix) for __aeabi_d2iz
    rred.o(i.__ieee754_rem_pio2) refers to dflt_noclz.o(x$fpl$dflt) for __aeabi_i2d
    rred.o(i.__ieee754_rem_pio2) refers to daddsub_noclz.o(x$fpl$drsb) for __aeabi_drsub
    rred.o(i.__ieee754_rem_pio2) refers to dflt_noclz.o(x$fpl$dfltu) for __aeabi_ui2d
    rred.o(i.__ieee754_rem_pio2) refers to scalbn.o(x$fpl$scalbn) for __ARM_scalbn
    rred.o(i.__ieee754_rem_pio2) refers to rred.o(.constdata) for .constdata
    rred.o(i.__use_accurate_range_reduction) refers (Special) to usenofp.o(x$fpl$usenofp) for __I$use$fp
    rred.o(.constdata) refers (Special) to usenofp.o(x$fpl$usenofp) for __I$use$fp
    sin_i.o(i.__kernel_sin) refers (Special) to usenofp.o(x$fpl$usenofp) for __I$use$fp
    sin_i.o(i.__kernel_sin) refers to fpclassify.o(i.__ARM_fpclassify) for __ARM_fpclassify
    sin_i.o(i.__kernel_sin) refers to dunder.o(i.__mathlib_dbl_underflow) for __mathlib_dbl_underflow
    sin_i.o(i.__kernel_sin) refers to dmul.o(x$fpl$dmul) for __aeabi_dmul
    sin_i.o(i.__kernel_sin) refers to poly.o(i.__kernel_poly) for __kernel_poly
    sin_i.o(i.__kernel_sin) refers to scalbn.o(x$fpl$scalbn) for __ARM_scalbn
    sin_i.o(i.__kernel_sin) refers to daddsub_noclz.o(x$fpl$dsub) for __aeabi_dsub
    sin_i.o(i.__kernel_sin) refers to daddsub_noclz.o(x$fpl$drsb) for __aeabi_drsub
    sin_i.o(i.__kernel_sin) refers to daddsub_noclz.o(x$fpl$dadd) for __aeabi_dadd
    sin_i.o(i.__kernel_sin) refers to sin_i.o(.constdata) for .constdata
    sin_i.o(.constdata) refers (Special) to usenofp.o(x$fpl$usenofp) for __I$use$fp
    sin_i_x.o(i.____kernel_sin$lsc) refers (Special) to usenofp.o(x$fpl$usenofp) for __I$use$fp
    sin_i_x.o(i.____kernel_sin$lsc) refers to dmul.o(x$fpl$dmul) for __aeabi_dmul
    sin_i_x.o(i.____kernel_sin$lsc) refers to poly.o(i.__kernel_poly) for __kernel_poly
    sin_i_x.o(i.____kernel_sin$lsc) refers to scalbn.o(x$fpl$scalbn) for __ARM_scalbn
    sin_i_x.o(i.____kernel_sin$lsc) refers to daddsub_noclz.o(x$fpl$dsub) for __aeabi_dsub
    sin_i_x.o(i.____kernel_sin$lsc) refers to daddsub_noclz.o(x$fpl$drsb) for __aeabi_drsub
    sin_i_x.o(i.____kernel_sin$lsc) refers to daddsub_noclz.o(x$fpl$dadd) for __aeabi_dadd
    sin_i_x.o(i.____kernel_sin$lsc) refers to sin_i_x.o(.constdata) for .constdata
    sin_i_x.o(.constdata) refers (Special) to usenofp.o(x$fpl$usenofp) for __I$use$fp
    __rtentry2.o(.ARM.Collect$$rtentry$$00000008) refers to boardinit2.o(.text) for _platform_post_stackheap_init
    __rtentry2.o(.ARM.Collect$$rtentry$$0000000A) refers to libinit.o(.ARM.Collect$$libinit$$00000000) for __rt_lib_init
    __rtentry2.o(.ARM.Collect$$rtentry$$0000000B) refers to boardinit3.o(.text) for _platform_post_lib_init
    __rtentry2.o(.ARM.Collect$$rtentry$$0000000D) refers to exit.o(.text) for exit
    __rtentry2.o(.ARM.Collect$$rtentry$$0000000D) refers to _init.o(.text) for main
    __rtentry2.o(.ARM.exidx) refers to __rtentry2.o(.ARM.Collect$$rtentry$$00000001) for .ARM.Collect$$rtentry$$00000001
    __rtentry2.o(.ARM.exidx) refers to __rtentry2.o(.ARM.Collect$$rtentry$$00000008) for .ARM.Collect$$rtentry$$00000008
    __rtentry2.o(.ARM.exidx) refers to __rtentry2.o(.ARM.Collect$$rtentry$$0000000A) for .ARM.Collect$$rtentry$$0000000A
    __rtentry2.o(.ARM.exidx) refers to __rtentry2.o(.ARM.Collect$$rtentry$$0000000B) for .ARM.Collect$$rtentry$$0000000B
    __rtentry2.o(.ARM.exidx) refers to __rtentry2.o(.ARM.Collect$$rtentry$$0000000D) for .ARM.Collect$$rtentry$$0000000D
    __rtentry4.o(.ARM.Collect$$rtentry$$00000004) refers to sys_stackheap_outer.o(.text) for __user_setup_stackheap
    __rtentry4.o(.ARM.exidx) refers to __rtentry4.o(.ARM.Collect$$rtentry$$00000004) for .ARM.Collect$$rtentry$$00000004
    rt_div0.o(.text) refers to defsig_fpe_outer.o(.text) for __rt_SIGFPE
    rt_errno_addr.o(.text) refers to rt_errno_addr.o(.bss) for __aeabi_errno_addr_data
    rt_errno_addr_intlibspace.o(.text) refers to libspace.o(.bss) for __libspace_start
    argv_veneer.o(.emb_text) refers to no_argv.o(.text) for __ARM_get_argv
    dcmpi.o(x$fpl$dcmpinf) refers (Special) to usenofp.o(x$fpl$usenofp) for __I$use$fp
    dfix.o(x$fpl$dfix) refers (Special) to usenofp.o(x$fpl$usenofp) for __I$use$fp
    dfix.o(x$fpl$dfix) refers to dnaninf.o(x$fpl$dnaninf) for __fpl_dnaninf
    dfix.o(x$fpl$dfixr) refers (Special) to usenofp.o(x$fpl$usenofp) for __I$use$fp
    dfix.o(x$fpl$dfixr) refers to dnaninf.o(x$fpl$dnaninf) for __fpl_dnaninf
    dflt_noclz.o(x$fpl$dfltu) refers (Special) to usenofp.o(x$fpl$usenofp) for __I$use$fp
    dflt_noclz.o(x$fpl$dfltu) refers to dflt_noclz.o(x$fpl$dflt) for __dflt_normalise
    dflt_noclz.o(x$fpl$dflt) refers (Special) to usenofp.o(x$fpl$usenofp) for __I$use$fp
    fcmpi.o(x$fpl$fcmpinf) refers (Special) to usenofp.o(x$fpl$usenofp) for __I$use$fp
    scalbn.o(x$fpl$scalbn) refers (Special) to usenofp.o(x$fpl$usenofp) for __I$use$fp
    scalbn.o(x$fpl$scalbn) refers to dcheck1.o(x$fpl$dcheck1) for __fpl_dcheck_NaN1
    fpclassify.o(i.__ARM_fpclassify) refers (Special) to usenofp.o(x$fpl$usenofp) for __I$use$fp
    poly.o(i.__kernel_poly) refers (Special) to usenofp.o(x$fpl$usenofp) for __I$use$fp
    poly.o(i.__kernel_poly) refers to dmul.o(x$fpl$dmul) for __aeabi_dmul
    poly.o(i.__kernel_poly) refers to daddsub_noclz.o(x$fpl$dadd) for __aeabi_dadd
    libspace.o(.text) refers to libspace.o(.bss) for __libspace_start
    sys_stackheap_outer.o(.text) refers to libspace.o(.text) for __user_perproc_libspace
    sys_stackheap_outer.o(.text) refers to startup.o(.text) for __user_initial_stackheap
    exit.o(.text) refers to rtexit.o(.ARM.Collect$$rtexit$$00000000) for __rt_exit
    defsig_fpe_outer.o(.text) refers to defsig_fpe_inner.o(.text) for __rt_SIGFPE_inner
    defsig_fpe_outer.o(.text) refers to defsig_exit.o(.text) for __sig_exit
    defsig_fpe_formal.o(.text) refers to rt_raise.o(.text) for __rt_raise
    _get_argv_nomalloc.o(.text) refers (Special) to hrguard.o(.text) for __heap_region$guard
    _get_argv_nomalloc.o(.text) refers to defsig_rtmem_outer.o(.text) for __rt_SIGRTMEM
    _get_argv_nomalloc.o(.text) refers to sys_command.o(.text) for _sys_command_string
    libinit.o(.ARM.Collect$$libinit$$00000000) refers (Special) to libinit2.o(.ARM.Collect$$libinit$$0000002E) for __rt_lib_init_alloca_1
    libinit.o(.ARM.Collect$$libinit$$00000000) refers (Special) to libinit2.o(.ARM.Collect$$libinit$$0000002C) for __rt_lib_init_argv_1
    libinit.o(.ARM.Collect$$libinit$$00000000) refers (Special) to libinit2.o(.ARM.Collect$$libinit$$0000001B) for __rt_lib_init_atexit_1
    libinit.o(.ARM.Collect$$libinit$$00000000) refers (Special) to libinit2.o(.ARM.Collect$$libinit$$00000021) for __rt_lib_init_clock_1
    libinit.o(.ARM.Collect$$libinit$$00000000) refers (Special) to libinit2.o(.ARM.Collect$$libinit$$00000032) for __rt_lib_init_cpp_1
    libinit.o(.ARM.Collect$$libinit$$00000000) refers (Special) to libinit2.o(.ARM.Collect$$libinit$$00000030) for __rt_lib_init_exceptions_1
    libinit.o(.ARM.Collect$$libinit$$00000000) refers (Special) to libinit2.o(.ARM.Collect$$libinit$$00000002) for __rt_lib_init_fp_1
    libinit.o(.ARM.Collect$$libinit$$00000000) refers (Special) to libinit2.o(.ARM.Collect$$libinit$$0000001F) for __rt_lib_init_fp_trap_1
    libinit.o(.ARM.Collect$$libinit$$00000000) refers (Special) to libinit2.o(.ARM.Collect$$libinit$$00000023) for __rt_lib_init_getenv_1
    libinit.o(.ARM.Collect$$libinit$$00000000) refers (Special) to libinit2.o(.ARM.Collect$$libinit$$0000000A) for __rt_lib_init_heap_1
    libinit.o(.ARM.Collect$$libinit$$00000000) refers (Special) to libinit2.o(.ARM.Collect$$libinit$$00000011) for __rt_lib_init_lc_collate_1
    libinit.o(.ARM.Collect$$libinit$$00000000) refers (Special) to libinit2.o(.ARM.Collect$$libinit$$00000013) for __rt_lib_init_lc_ctype_1
    libinit.o(.ARM.Collect$$libinit$$00000000) refers (Special) to libinit2.o(.ARM.Collect$$libinit$$00000015) for __rt_lib_init_lc_monetary_1
    libinit.o(.ARM.Collect$$libinit$$00000000) refers (Special) to libinit2.o(.ARM.Collect$$libinit$$00000017) for __rt_lib_init_lc_numeric_1
    libinit.o(.ARM.Collect$$libinit$$00000000) refers (Special) to libinit2.o(.ARM.Collect$$libinit$$00000019) for __rt_lib_init_lc_time_1
    libinit.o(.ARM.Collect$$libinit$$00000000) refers (Special) to libinit2.o(.ARM.Collect$$libinit$$00000004) for __rt_lib_init_preinit_1
    libinit.o(.ARM.Collect$$libinit$$00000000) refers (Special) to libinit2.o(.ARM.Collect$$libinit$$0000000E) for __rt_lib_init_rand_1
    libinit.o(.ARM.Collect$$libinit$$00000000) refers (Special) to libinit2.o(.ARM.Collect$$libinit$$00000033) for __rt_lib_init_return
    libinit.o(.ARM.Collect$$libinit$$00000000) refers (Special) to libinit2.o(.ARM.Collect$$libinit$$0000001D) for __rt_lib_init_signal_1
    libinit.o(.ARM.Collect$$libinit$$00000000) refers (Special) to libinit2.o(.ARM.Collect$$libinit$$00000025) for __rt_lib_init_stdio_1
    libinit.o(.ARM.Collect$$libinit$$00000000) refers (Special) to libinit2.o(.ARM.Collect$$libinit$$0000000C) for __rt_lib_init_user_alloc_1
    dcheck1.o(x$fpl$dcheck1) refers (Special) to usenofp.o(x$fpl$usenofp) for __I$use$fp
    dcheck1.o(x$fpl$dcheck1) refers to retnan.o(x$fpl$retnan) for __fpl_return_NaN
    sys_command.o(.text) refers (Special) to use_no_semi.o(.text) for __I$use$semihosting
    sys_command.o(.text) refers (Special) to indicate_semi.o(.text) for __semihosting_library_function
    rtexit.o(.ARM.Collect$$rtexit$$00000000) refers (Special) to rtexit2.o(.ARM.Collect$$rtexit$$00000004) for __rt_exit_exit
    rtexit.o(.ARM.Collect$$rtexit$$00000000) refers (Special) to rtexit2.o(.ARM.Collect$$rtexit$$00000003) for __rt_exit_ls
    rtexit.o(.ARM.Collect$$rtexit$$00000000) refers (Special) to rtexit2.o(.ARM.Collect$$rtexit$$00000002) for __rt_exit_prels_1
    rtexit.o(.ARM.exidx) refers (Special) to rtexit2.o(.ARM.Collect$$rtexit$$00000004) for __rt_exit_exit
    rtexit.o(.ARM.exidx) refers (Special) to rtexit2.o(.ARM.Collect$$rtexit$$00000003) for __rt_exit_ls
    rtexit.o(.ARM.exidx) refers (Special) to rtexit2.o(.ARM.Collect$$rtexit$$00000002) for __rt_exit_prels_1
    rtexit.o(.ARM.exidx) refers to rtexit.o(.ARM.Collect$$rtexit$$00000000) for .ARM.Collect$$rtexit$$00000000
    rt_raise.o(.text) refers to __raise.o(.text) for __raise
    rt_raise.o(.text) refers to sys_exit.o(.text) for _sys_exit
    defsig_exit.o(.text) refers to sys_exit.o(.text) for _sys_exit
    defsig_fpe_inner.o(.text) refers to defsig_general.o(.text) for __default_signal_display
    defsig_rtmem_outer.o(.text) refers to defsig_rtmem_inner.o(.text) for __rt_SIGRTMEM_inner
    defsig_rtmem_outer.o(.text) refers to defsig_exit.o(.text) for __sig_exit
    defsig_rtmem_formal.o(.text) refers to rt_raise.o(.text) for __rt_raise
    retnan.o(x$fpl$retnan) refers (Special) to usenofp.o(x$fpl$usenofp) for __I$use$fp
    retnan.o(x$fpl$retnan) refers to trapv.o(x$fpl$trapveneer) for __fpl_cmpreturn
    sys_exit.o(.text) refers (Special) to use_no_semi.o(.text) for __I$use$semihosting
    sys_exit.o(.text) refers (Special) to indicate_semi.o(.text) for __semihosting_library_function
    rtexit2.o(.ARM.Collect$$rtexit$$00000003) refers to libshutdown.o(.ARM.Collect$$libshutdown$$00000000) for __rt_lib_shutdown
    rtexit2.o(.ARM.Collect$$rtexit$$00000004) refers to sys_exit.o(.text) for _sys_exit
    rtexit2.o(.ARM.exidx) refers to rtexit2.o(.ARM.Collect$$rtexit$$00000001) for .ARM.Collect$$rtexit$$00000001
    rtexit2.o(.ARM.exidx) refers to rtexit2.o(.ARM.Collect$$rtexit$$00000003) for .ARM.Collect$$rtexit$$00000003
    rtexit2.o(.ARM.exidx) refers to rtexit2.o(.ARM.Collect$$rtexit$$00000004) for .ARM.Collect$$rtexit$$00000004
    __raise.o(.text) refers to __raise.o(i.__ARM_common_call_via_r2) for __ARM_common_call_via_r2
    __raise.o(.text) refers to defsig.o(CL$$defsig) for __default_signal_handler
    defsig_general.o(.text) refers to sys_wrch.o(.text) for _ttywrch
    defsig_rtmem_inner.o(.text) refers to defsig_general.o(.text) for __default_signal_display
    trapv.o(x$fpl$trapveneer) refers (Special) to usenofp.o(x$fpl$usenofp) for __I$use$fp
    sys_wrch.o(.text) refers (Special) to use_no_semi.o(.text) for __I$use$semihosting
    sys_wrch.o(.text) refers (Special) to indicate_semi.o(.text) for __semihosting_library_function
    defsig.o(CL$$defsig) refers to defsig_fpe_inner.o(.text) for __rt_SIGFPE_inner
    defsig.o(CL$$defsig) refers to defsig_rtmem_inner.o(.text) for __rt_SIGRTMEM_inner
    libshutdown.o(.ARM.Collect$$libshutdown$$00000000) refers (Special) to libshutdown2.o(.ARM.Collect$$libshutdown$$00000002) for __rt_lib_shutdown_cpp_1
    libshutdown.o(.ARM.Collect$$libshutdown$$00000000) refers (Special) to libshutdown2.o(.ARM.Collect$$libshutdown$$00000007) for __rt_lib_shutdown_fp_trap_1
    libshutdown.o(.ARM.Collect$$libshutdown$$00000000) refers (Special) to libshutdown2.o(.ARM.Collect$$libshutdown$$0000000F) for __rt_lib_shutdown_heap_1
    libshutdown.o(.ARM.Collect$$libshutdown$$00000000) refers (Special) to libshutdown2.o(.ARM.Collect$$libshutdown$$00000010) for __rt_lib_shutdown_return
    libshutdown.o(.ARM.Collect$$libshutdown$$00000000) refers (Special) to libshutdown2.o(.ARM.Collect$$libshutdown$$0000000A) for __rt_lib_shutdown_signal_1
    libshutdown.o(.ARM.Collect$$libshutdown$$00000000) refers (Special) to libshutdown2.o(.ARM.Collect$$libshutdown$$00000004) for __rt_lib_shutdown_stdio_1
    libshutdown.o(.ARM.Collect$$libshutdown$$00000000) refers (Special) to libshutdown2.o(.ARM.Collect$$libshutdown$$0000000C) for __rt_lib_shutdown_user_alloc_1
    defsig_abrt_inner.o(.text) refers to defsig_general.o(.text) for __default_signal_display
    defsig_rtred_inner.o(.text) refers to defsig_general.o(.text) for __default_signal_display
    defsig_stak_inner.o(.text) refers to defsig_general.o(.text) for __default_signal_display
    defsig_pvfn_inner.o(.text) refers to defsig_general.o(.text) for __default_signal_display
    defsig_cppl_inner.o(.text) refers to defsig_general.o(.text) for __default_signal_display
    defsig_segv_inner.o(.text) refers to defsig_general.o(.text) for __default_signal_display
    defsig_other.o(.text) refers to defsig_general.o(.text) for __default_signal_display


==============================================================================

Removing Unused input sections from the image.

    Removing os_mutex.o(.text), (2228 bytes).
    Removing _uart.o(.bss), (12 bytes).

2 unused section(s) (total 2240 bytes) removed from the image.

==============================================================================

Adding Veneers to the image

    Adding AT veneer (8 bytes, Inline) for call to '__rt_lib_init' from __rtentry2.o(.ARM.Collect$$rtentry$$0000000A).
    Adding AT veneer (8 bytes, Inline) for call to '__rt_lib_shutdown' from rtexit2.o(.ARM.Collect$$rtexit$$00000003).
    Adding TA veneer (4 bytes, Inline) for call to '__rt_exit' from exit.o(.text).
    Adding AT veneer (8 bytes, Inline) for call to 'srand' from target.o(.text).
    Adding AT veneer (8 bytes, Inline) for call to 'strlen' from gps.o(.text).
    Adding AT veneer (8 bytes, Inline) for call to 'memchr' from _ascnumber.o(.text).
    Adding AT veneer (8 bytes, Inline) for call to '__set_errno' from cos.o(i.cos).
    Adding TA veneer (4 bytes, Inline) for call to '__aeabi_errno_addr' from _rserrno.o(.text).
    Adding AT veneer (8 bytes, Inline) for call to '_sys_exit' from rtexit2.o(.ARM.Collect$$rtexit$$00000004).

9 Veneer(s) (total 64 bytes) added to the image.

==============================================================================

Image Symbol Table

    Local Symbols

    Symbol Name                              Value     Ov Type        Size  Object(Section)

    RESET                                    0x00000000   Section      184  startup.o(RESET)
    ../clib/angel/boardlib.s                 0x00000000   Number         0  boardinit1.o ABSOLUTE
    ../clib/angel/boardlib.s                 0x00000000   Number         0  boardshut.o ABSOLUTE
    ../clib/angel/boardlib.s                 0x00000000   Number         0  boardinit2.o ABSOLUTE
    ../clib/angel/boardlib.s                 0x00000000   Number         0  boardinit3.o ABSOLUTE
    ../clib/angel/dczerorl2.s                0x00000000   Number         0  __dczerorl2.o ABSOLUTE
    ../clib/angel/handlers.s                 0x00000000   Number         0  __scatter_zi.o ABSOLUTE
    ../clib/angel/kernel.s                   0x00000000   Number         0  rtexit.o ABSOLUTE
    ../clib/angel/kernel.s                   0x00000000   Number         0  __rtentry4.o ABSOLUTE
    ../clib/angel/kernel.s                   0x00000000   Number         0  __rtentry2.o ABSOLUTE
    ../clib/angel/kernel.s                   0x00000000   Number         0  rtexit2.o ABSOLUTE
    ../clib/angel/kernel.s                   0x00000000   Number         0  __rtentry.o ABSOLUTE
    ../clib/angel/rt.s                       0x00000000   Number         0  rt_errno_addr_intlibspace.o ABSOLUTE
    ../clib/angel/rt.s                       0x00000000   Number         0  rt_errno_addr.o ABSOLUTE
    ../clib/angel/rt.s                       0x00000000   Number         0  rt_raise.o ABSOLUTE
    ../clib/angel/rt.s                       0x00000000   Number         0  rt_div0.o ABSOLUTE
    ../clib/angel/rt.s                       0x00000000   Number         0  aeabi_idiv0_sigfpe.o ABSOLUTE
    ../clib/angel/rt.s                       0x00000000   Number         0  aeabi_idiv0.o ABSOLUTE
    ../clib/angel/scatter.s                  0x00000000   Number         0  __scatter.o ABSOLUTE
    ../clib/angel/startup.s                  0x00000000   Number         0  __main.o ABSOLUTE
    ../clib/angel/sys.s                      0x00000000   Number         0  use_no_semi.o ABSOLUTE
    ../clib/angel/sys.s                      0x00000000   Number         0  indicate_semi.o ABSOLUTE
    ../clib/angel/sys.s                      0x00000000   Number         0  libspace.o ABSOLUTE
    ../clib/angel/sys.s                      0x00000000   Number         0  sys_stackheap_outer.o ABSOLUTE
    ../clib/angel/sysapp.c                   0x00000000   Number         0  sys_command.o ABSOLUTE
    ../clib/angel/sysapp.c                   0x00000000   Number         0  sys_wrch.o ABSOLUTE
    ../clib/angel/sysapp.c                   0x00000000   Number         0  sys_exit.o ABSOLUTE
    ../clib/armsys.c                         0x00000000   Number         0  argv_veneer.o ABSOLUTE
    ../clib/armsys.c                         0x00000000   Number         0  argv_veneer.o ABSOLUTE
    ../clib/armsys.c                         0x00000000   Number         0  _get_argv_nomalloc.o ABSOLUTE
    ../clib/armsys.c                         0x00000000   Number         0  no_argv.o ABSOLUTE
    ../clib/division.s                       0x00000000   Number         0  aeabi_sdiv_div0.o ABSOLUTE
    ../clib/division.s                       0x00000000   Number         0  aeabi_sdiv.o ABSOLUTE
    ../clib/divrt.s                          0x00000000   Number         0  divrt_7tdmi.o ABSOLUTE
    ../clib/divrt.s                          0x00000000   Number         0  divrt_7tdmi_div0.o ABSOLUTE
    ../clib/fenv.c                           0x00000000   Number         0  _rserrno.o ABSOLUTE
    ../clib/heapalloc.c                      0x00000000   Number         0  hrguard.o ABSOLUTE
    ../clib/heapaux.c                        0x00000000   Number         0  heapauxi.o ABSOLUTE
    ../clib/libinit.s                        0x00000000   Number         0  libinit2.o ABSOLUTE
    ../clib/libinit.s                        0x00000000   Number         0  libshutdown2.o ABSOLUTE
    ../clib/libinit.s                        0x00000000   Number         0  libinit.o ABSOLUTE
    ../clib/libinit.s                        0x00000000   Number         0  libshutdown.o ABSOLUTE
    ../clib/memcpset.s                       0x00000000   Number         0  rt_memclr.o ABSOLUTE
    ../clib/memcpset.s                       0x00000000   Number         0  rt_memclr_w.o ABSOLUTE
    ../clib/memcpset.s                       0x00000000   Number         0  aeabi_memset.o ABSOLUTE
    ../clib/memcpset.s                       0x00000000   Number         0  rt_memcpy_w.o ABSOLUTE
    ../clib/signal.c                         0x00000000   Number         0  defsig_pvfn_inner.o ABSOLUTE
    ../clib/signal.c                         0x00000000   Number         0  defsig_fpe_inner.o ABSOLUTE
    ../clib/signal.c                         0x00000000   Number         0  defsig_other.o ABSOLUTE
    ../clib/signal.c                         0x00000000   Number         0  defsig_rtmem_formal.o ABSOLUTE
    ../clib/signal.c                         0x00000000   Number         0  defsig_stak_inner.o ABSOLUTE
    ../clib/signal.c                         0x00000000   Number         0  defsig_segv_inner.o ABSOLUTE
    ../clib/signal.c                         0x00000000   Number         0  defsig_cppl_inner.o ABSOLUTE
    ../clib/signal.c                         0x00000000   Number         0  defsig_fpe_formal.o ABSOLUTE
    ../clib/signal.c                         0x00000000   Number         0  defsig_fpe_outer.o ABSOLUTE
    ../clib/signal.c                         0x00000000   Number         0  defsig_abrt_inner.o ABSOLUTE
    ../clib/signal.c                         0x00000000   Number         0  __raise.o ABSOLUTE
    ../clib/signal.c                         0x00000000   Number         0  defsig_rtred_inner.o ABSOLUTE
    ../clib/signal.c                         0x00000000   Number         0  defsig_general.o ABSOLUTE
    ../clib/signal.c                         0x00000000   Number         0  defsig_rtmem_inner.o ABSOLUTE
    ../clib/signal.c                         0x00000000   Number         0  defsig_exit.o ABSOLUTE
    ../clib/signal.c                         0x00000000   Number         0  defsig_rtmem_outer.o ABSOLUTE
    ../clib/signal.s                         0x00000000   Number         0  defsig.o ABSOLUTE
    ../clib/stdlib.c                         0x00000000   Number         0  exit.o ABSOLUTE
    ../clib/stdlib.c                         0x00000000   Number         0  rand.o ABSOLUTE
    ../clib/stdlib.c                         0x00000000   Number         0  rand.o ABSOLUTE
    ../clib/string.c                         0x00000000   Number         0  strlen.o ABSOLUTE
    ../clib/string.c                         0x00000000   Number         0  memchr.o ABSOLUTE
    ../fplib/d2f.s                           0x00000000   Number         0  d2f.o ABSOLUTE
    ../fplib/daddsub.s                       0x00000000   Number         0  daddsub_noclz.o ABSOLUTE
    ../fplib/dcheck1.s                       0x00000000   Number         0  dcheck1.o ABSOLUTE
    ../fplib/dcmpi.s                         0x00000000   Number         0  dcmpi.o ABSOLUTE
    ../fplib/ddiv.s                          0x00000000   Number         0  ddiv.o ABSOLUTE
    ../fplib/dfix.s                          0x00000000   Number         0  dfix.o ABSOLUTE
    ../fplib/dflt.s                          0x00000000   Number         0  dflt_noclz.o ABSOLUTE
    ../fplib/dleqf.s                         0x00000000   Number         0  dleqf.o ABSOLUTE
    ../fplib/dmul.s                          0x00000000   Number         0  dmul.o ABSOLUTE
    ../fplib/dnaninf.s                       0x00000000   Number         0  dnaninf.o ABSOLUTE
    ../fplib/dretinf.s                       0x00000000   Number         0  dretinf.o ABSOLUTE
    ../fplib/dsqrt.s                         0x00000000   Number         0  dsqrt_noumaal.o ABSOLUTE
    ../fplib/f2d.s                           0x00000000   Number         0  f2d.o ABSOLUTE
    ../fplib/faddsub.s                       0x00000000   Number         0  faddsub_noclz.o ABSOLUTE
    ../fplib/fcmpi.s                         0x00000000   Number         0  fcmpi.o ABSOLUTE
    ../fplib/ffixu.s                         0x00000000   Number         0  ffixu.o ABSOLUTE
    ../fplib/fflt.s                          0x00000000   Number         0  fflt_noclz.o ABSOLUTE
    ../fplib/fleqf.s                         0x00000000   Number         0  fleqf.o ABSOLUTE
    ../fplib/fmul.s                          0x00000000   Number         0  fmul.o ABSOLUTE
    ../fplib/fnaninf.s                       0x00000000   Number         0  fnaninf.o ABSOLUTE
    ../fplib/fpinit.s                        0x00000000   Number         0  fpinit.o ABSOLUTE
    ../fplib/fretinf.s                       0x00000000   Number         0  fretinf.o ABSOLUTE
    ../fplib/frleqf.s                        0x00000000   Number         0  frleqf.o ABSOLUTE
    ../fplib/retnan.s                        0x00000000   Number         0  retnan.o ABSOLUTE
    ../fplib/scalbn.s                        0x00000000   Number         0  scalbn.o ABSOLUTE
    ../fplib/trapv.s                         0x00000000   Number         0  trapv.o ABSOLUTE
    ../fplib/usenofp.s                       0x00000000   Number         0  usenofp.o ABSOLUTE
    ../mathlib/cos.c                         0x00000000   Number         0  cos.o ABSOLUTE
    ../mathlib/cos.c                         0x00000000   Number         0  cos_x.o ABSOLUTE
    ../mathlib/cos_i.c                       0x00000000   Number         0  cos_i.o ABSOLUTE
    ../mathlib/dunder.c                      0x00000000   Number         0  dunder.o ABSOLUTE
    ../mathlib/fpclassify.c                  0x00000000   Number         0  fpclassify.o ABSOLUTE
    ../mathlib/poly.c                        0x00000000   Number         0  poly.o ABSOLUTE
    ../mathlib/rred.c                        0x00000000   Number         0  rred.o ABSOLUTE
    ../mathlib/sin.c                         0x00000000   Number         0  sin.o ABSOLUTE
    ../mathlib/sin.c                         0x00000000   Number         0  sin_x.o ABSOLUTE
    ../mathlib/sin_i.c                       0x00000000   Number         0  sin_i.o ABSOLUTE
    ../mathlib/sin_i.c                       0x00000000   Number         0  sin_i_x.o ABSOLUTE
    ../mathlib/sqrt.c                        0x00000000   Number         0  sqrt_x.o ABSOLUTE
    ../mathlib/sqrt.c                        0x00000000   Number         0  sqrt.o ABSOLUTE
    AgreeOn\TzV2.1.C                         0x00000000   Number         0  tzv2.1.o ABSOLUTE
    AgreeOn\TzV2.1\Agree\Tz_Agreen.c         0x00000000   Number         0  tz_agreen.o ABSOLUTE
    AgreeOn\TzV2.1\Send\Tz_Send.c            0x00000000   Number         0  tz_send.o ABSOLUTE
    AppAgreenOn\AppGprs.c                    0x00000000   Number         0  appgprs.o ABSOLUTE
    AppOper\AccOper.c                        0x00000000   Number         0  accoper.o ABSOLUTE
    AppOper\DisPlayOper.c                    0x00000000   Number         0  displayoper.o ABSOLUTE
    AppOper\JugeOper.c                       0x00000000   Number         0  jugeoper.o ABSOLUTE
    AppOper\MessageAndPhone.c                0x00000000   Number         0  messageandphone.o ABSOLUTE
    AppOper\Space.c                          0x00000000   Number         0  space.o ABSOLUTE
    AppOper\WarningUpate.c                   0x00000000   Number         0  warningupate.o ABSOLUTE
    AppSendAgreeOn\AppSendAgreeOn.c          0x00000000   Number         0  appsendagreeon.o ABSOLUTE
    AppSensor\AppAgreeDataSensor.c           0x00000000   Number         0  appagreedatasensor.o ABSOLUTE
    AppTask\LogOnServer\LogOnServer.c        0x00000000   Number         0  logonserver.o ABSOLUTE
    AppTask\OpenClose\OpenAndClose.c         0x00000000   Number         0  openandclose.o ABSOLUTE
    AppTask\UpdateSoftWare\UpdateSoftWare.c  0x00000000   Number         0  updatesoftware.o ABSOLUTE
    Control\FTP\FTP.c                        0x00000000   Number         0  ftp.o ABSOLUTE
    Control\Gprs\GPRS.c                      0x00000000   Number         0  gprs.o ABSOLUTE
    Control\GpsAndMileage\GpsAndMileage.c    0x00000000   Number         0  gpsandmileage.o ABSOLUTE
    Control\Photo\Photo.c                    0x00000000   Number         0  photo.o ABSOLUTE
    Control\Sensor\SensorContr.c             0x00000000   Number         0  sensorcontr.o ABSOLUTE
    Control\Timer\Timer.c                    0x00000000   Number         0  timer.o ABSOLUTE
    Dev\Flash\NandFlash\512\_NandFlash512.c  0x00000000   Number         0  _nandflash512.o ABSOLUTE
    Dev\Flash\SpiFlash\_SpiFlash512.c        0x00000000   Number         0  _spiflash512.o ABSOLUTE
    Dev\Flash\_Flash.c                       0x00000000   Number         0  _flash.o ABSOLUTE
    Dev\Flash\_rwflashlgc.c                  0x00000000   Number         0  _rwflashlgc.o ABSOLUTE
    Dev\GPRS\GprsHard.c                      0x00000000   Number         0  gprshard.o ABSOLUTE
    Dev\GPRS\Huaiwei\HuaiweiGprs.c           0x00000000   Number         0  huaiweigprs.o ABSOLUTE
    Dev\Sensor\ACC\ACC.C                     0x00000000   Number         0  acc.o ABSOLUTE
    Dev\Sensor\ADC\Adc1.c                    0x00000000   Number         0  adc1.o ABSOLUTE
    Dev\Sensor\Display\Display.c             0x00000000   Number         0  display.o ABSOLUTE
    Dev\Sensor\GprsTzxy\GprsTzxy.C           0x00000000   Number         0  gprstzxy.o ABSOLUTE
    Dev\Sensor\Gps\Gps.c                     0x00000000   Number         0  gps.o ABSOLUTE
    Dev\Sensor\Help\Help.C                   0x00000000   Number         0  help.o ABSOLUTE
    Dev\Sensor\Less\Less.c                   0x00000000   Number         0  less.o ABSOLUTE
    Dev\Sensor\Oil\Oil.c                     0x00000000   Number         0  oil.o ABSOLUTE
    Dev\Sensor\OnOff\OnOrOff.C               0x00000000   Number         0  onoroff.o ABSOLUTE
    Dev\Sensor\Sensor.c                      0x00000000   Number         0  sensor.o ABSOLUTE
    Dev\Sensor\SmsTzxy\SmsTzxy.C             0x00000000   Number         0  smstzxy.o ABSOLUTE
    Dev\Sensor\UartTzxy\UartTzxy.C           0x00000000   Number         0  uarttzxy.o ABSOLUTE
    Dev\Sensor\arealrm\arealrm.c             0x00000000   Number         0  arealrm.o ABSOLUTE
    Dev\Sensor\mileage\mileage.c             0x00000000   Number         0  mileage.o ABSOLUTE
    Dev\Sensor\temperture\temperture.c       0x00000000   Number         0  temperture.o ABSOLUTE
    File\_DownFile.c                         0x00000000   Number         0  _downfile.o ABSOLUTE
    File\_rwFile.c                           0x00000000   Number         0  _rwfile.o ABSOLUTE
    FilleData\TakeData.c                     0x00000000   Number         0  takedata.o ABSOLUTE
    FilleData\_FileData.c                    0x00000000   Number         0  _filedata.o ABSOLUTE
    HardWare\ADC\ADCHard.C                   0x00000000   Number         0  adchard.o ABSOLUTE
    HardWare\Can\_Can.c                      0x00000000   Number         0  _can.o ABSOLUTE
    HardWare\DS18B20\DS18B20.c               0x00000000   Number         0  ds18b20.o ABSOLUTE
    HardWare\RTC\_RTC.c                      0x00000000   Number         0  _rtc.o ABSOLUTE
    HardWare\Spi\_Spi.c                      0x00000000   Number         0  _spi.o ABSOLUTE
    HardWare\UART\_UART.C                    0x00000000   Number         0  _uart.o ABSOLUTE
    OpenSensor\OpenSensor.c                  0x00000000   Number         0  opensensor.o ABSOLUTE
    app\IRQ.s                                0x00000000   Number         0  irq.o ABSOLUTE
    app\Startup.s                            0x00000000   Number         0  startup.o ABSOLUTE
    app\target.c                             0x00000000   Number         0  target.o ABSOLUTE
    arm\Os_cpu_a.s                           0x00000000   Number         0  os_cpu_a.o ABSOLUTE
    arm\Os_cpu_c.c                           0x00000000   Number         0  os_cpu_c.o ABSOLUTE
    dc.s                                     0x00000000   Number         0  dc.o ABSOLUTE
    main\_Init.c                             0x00000000   Number         0  _init.o ABSOLUTE
    miscellaneous\Arithmetic\_Arithmetic.c   0x00000000   Number         0  _arithmetic.o ABSOLUTE
    miscellaneous\CodeTrans\_AscNumber.c     0x00000000   Number         0  _ascnumber.o ABSOLUTE
    miscellaneous\Date\_Date.c               0x00000000   Number         0  _date.o ABSOLUTE
    ucosii\OS_CORE.C                         0x00000000   Number         0  os_core.o ABSOLUTE
    ucosii\OS_FLAG.C                         0x00000000   Number         0  os_flag.o ABSOLUTE
    ucosii\OS_MBOX.C                         0x00000000   Number         0  os_mbox.o ABSOLUTE
    ucosii\OS_MEM.C                          0x00000000   Number         0  os_mem.o ABSOLUTE
    ucosii\OS_MUTEX.C                        0x00000000   Number         0  os_mutex.o ABSOLUTE
    ucosii\OS_Q.C                            0x00000000   Number         0  os_q.o ABSOLUTE
    ucosii\OS_SEM.C                          0x00000000   Number         0  os_sem.o ABSOLUTE
    ucosii\OS_TASK.C                         0x00000000   Number         0  os_task.o ABSOLUTE
    ucosii\OS_TIME.C                         0x00000000   Number         0  os_time.o ABSOLUTE
    Undef_Handler                            0x0000003c   ARM Code       4  startup.o(RESET)
    PAbt_Handler                             0x00000040   ARM Code       4  startup.o(RESET)
    DAbt_Handler                             0x00000044   ARM Code       4  startup.o(RESET)
    FIQ_Handler                              0x00000048   ARM Code       0  startup.o(RESET)
    !!!main                                  0x000000b8   Section        8  __main.o(!!!main)
    !!!scatter                               0x000000c0   Section       60  __scatter.o(!!!scatter)
    !!dczerorl2                              0x000000fc   Section       92  __dczerorl2.o(!!dczerorl2)
    _decompress_loop                         0x00000107   Thumb Code     0  __dczerorl2.o(!!dczerorl2)
    _decompress_zerolen                      0x00000115   Thumb Code     0  __dczerorl2.o(!!dczerorl2)
    _decompress_litn                         0x0000011d   Thumb Code     0  __dczerorl2.o(!!dczerorl2)
    _decompress_lit                          0x00000121   Thumb Code     0  __dczerorl2.o(!!dczerorl2)
    _decompress_copyorzero                   0x0000012d   Thumb Code     0  __dczerorl2.o(!!dczerorl2)
    _decompress_zero                         0x00000135   Thumb Code     0  __dczerorl2.o(!!dczerorl2)
    _decompress_copyn                        0x0000013f   Thumb Code     0  __dczerorl2.o(!!dczerorl2)
    _decompress_copy                         0x00000147   Thumb Code     0  __dczerorl2.o(!!dczerorl2)
    _decompress_end                          0x00000153   Thumb Code     0  __dczerorl2.o(!!dczerorl2)
    !!handler_zi                             0x00000158   Section       44  __scatter_zi.o(!!handler_zi)
    .ARM.Collect$$libinit$$00000000          0x0000018c   Section        2  libinit.o(.ARM.Collect$$libinit$$00000000)
    .ARM.Collect$$libinit$$00000002          0x0000018e   Section        0  libinit2.o(.ARM.Collect$$libinit$$00000002)
    .ARM.Collect$$libinit$$00000004          0x0000018e   Section        0  libinit2.o(.ARM.Collect$$libinit$$00000004)
    .ARM.Collect$$libinit$$0000000A          0x0000018e   Section        0  libinit2.o(.ARM.Collect$$libinit$$0000000A)
    .ARM.Collect$$libinit$$0000000C          0x0000018e   Section        0  libinit2.o(.ARM.Collect$$libinit$$0000000C)
    .ARM.Collect$$libinit$$0000000D          0x0000018e   Section        4  libinit2.o(.ARM.Collect$$libinit$$0000000D)
    .ARM.Collect$$libinit$$0000000E          0x00000192   Section        0  libinit2.o(.ARM.Collect$$libinit$$0000000E)
    .ARM.Collect$$libinit$$00000011          0x00000192   Section        0  libinit2.o(.ARM.Collect$$libinit$$00000011)
    .ARM.Collect$$libinit$$00000013          0x00000192   Section        0  libinit2.o(.ARM.Collect$$libinit$$00000013)
    .ARM.Collect$$libinit$$00000015          0x00000192   Section        0  libinit2.o(.ARM.Collect$$libinit$$00000015)
    .ARM.Collect$$libinit$$00000017          0x00000192   Section        0  libinit2.o(.ARM.Collect$$libinit$$00000017)
    .ARM.Collect$$libinit$$00000019          0x00000192   Section        0  libinit2.o(.ARM.Collect$$libinit$$00000019)
    .ARM.Collect$$libinit$$0000001B          0x00000192   Section        0  libinit2.o(.ARM.Collect$$libinit$$0000001B)
    .ARM.Collect$$libinit$$0000001D          0x00000192   Section        0  libinit2.o(.ARM.Collect$$libinit$$0000001D)
    .ARM.Collect$$libinit$$0000001F          0x00000192   Section        0  libinit2.o(.ARM.Collect$$libinit$$0000001F)
    .ARM.Collect$$libinit$$00000021          0x00000192   Section        0  libinit2.o(.ARM.Collect$$libinit$$00000021)
    .ARM.Collect$$libinit$$00000023          0x00000192   Section        0  libinit2.o(.ARM.Collect$$libinit$$00000023)
    .ARM.Collect$$libinit$$00000025          0x00000192   Section        0  libinit2.o(.ARM.Collect$$libinit$$00000025)
    .ARM.Collect$$libinit$$0000002C          0x00000192   Section        0  libinit2.o(.ARM.Collect$$libinit$$0000002C)
    .ARM.Collect$$libinit$$0000002E          0x00000192   Section        0  libinit2.o(.ARM.Collect$$libinit$$0000002E)
    .ARM.Collect$$libinit$$00000030          0x00000192   Section        0  libinit2.o(.ARM.Collect$$libinit$$00000030)
    .ARM.Collect$$libinit$$00000032          0x00000192   Section        0  libinit2.o(.ARM.Collect$$libinit$$00000032)
    .ARM.Collect$$libinit$$00000033          0x00000192   Section       12  libinit2.o(.ARM.Collect$$libinit$$00000033)
    .ARM.Collect$$libshutdown$$00000000      0x000001a8   Section        4  libshutdown.o(.ARM.Collect$$libshutdown$$00000000)
    .ARM.Collect$$libshutdown$$00000002      0x000001ac   Section        0  libshutdown2.o(.ARM.Collect$$libshutdown$$00000002)
    .ARM.Collect$$libshutdown$$00000004      0x000001ac   Section        0  libshutdown2.o(.ARM.Collect$$libshutdown$$00000004)
    .ARM.Collect$$libshutdown$$00000007      0x000001ac   Section        0  libshutdown2.o(.ARM.Collect$$libshutdown$$00000007)
    .ARM.Collect$$libshutdown$$0000000A      0x000001ac   Section        0  libshutdown2.o(.ARM.Collect$$libshutdown$$0000000A)
    .ARM.Collect$$libshutdown$$0000000C      0x000001ac   Section        0  libshutdown2.o(.ARM.Collect$$libshutdown$$0000000C)
    .ARM.Collect$$libshutdown$$0000000F      0x000001ac   Section        0  libshutdown2.o(.ARM.Collect$$libshutdown$$0000000F)
    .ARM.Collect$$libshutdown$$00000010      0x000001ac   Section        6  libshutdown2.o(.ARM.Collect$$libshutdown$$00000010)
    .ARM.Collect$$rtentry$$00000000          0x000001b4   Section        0  __rtentry.o(.ARM.Collect$$rtentry$$00000000)
    .ARM.Collect$$rtentry$$00000002          0x000001b4   Section        0  __rtentry2.o(.ARM.Collect$$rtentry$$00000002)
    .ARM.Collect$$rtentry$$00000004          0x000001b4   Section        8  __rtentry4.o(.ARM.Collect$$rtentry$$00000004)
    .ARM.Collect$$rtentry$$00000009          0x000001bc   Section        0  __rtentry2.o(.ARM.Collect$$rtentry$$00000009)
    .ARM.Collect$$rtentry$$0000000A          0x000001bc   Section        4  __rtentry2.o(.ARM.Collect$$rtentry$$0000000A)
    .ARM.Collect$$rtentry$$0000000C          0x000001c0   Section        0  __rtentry2.o(.ARM.Collect$$rtentry$$0000000C)
    .ARM.Collect$$rtentry$$0000000D          0x000001c0   Section       40  __rtentry2.o(.ARM.Collect$$rtentry$$0000000D)
    .ARM.Collect$$rtexit$$00000000           0x000001ec   Section        4  rtexit.o(.ARM.Collect$$rtexit$$00000000)
    .ARM.Collect$$rtexit$$00000002           0x000001f0   Section        0  rtexit2.o(.ARM.Collect$$rtexit$$00000002)
    .ARM.Collect$$rtexit$$00000003           0x000001f0   Section        4  rtexit2.o(.ARM.Collect$$rtexit$$00000003)
    .ARM.Collect$$rtexit$$00000004           0x000001f4   Section        8  rtexit2.o(.ARM.Collect$$rtexit$$00000004)
    .text                                    0x000001fc   Section        0  target.o(.text)
    InitWTD                                  0x00000608   ARM Code      24  target.o(.text)
    .text                                    0x000006dc   Section       36  startup.o(.text)
    .text                                    0x00000700   Section        0  os_cpu_c.o(.text)
    .text                                    0x00000998   Section        0  os_core.o(.text)
    OS_InitTaskStat                          0x00000a70   ARM Code      76  os_core.o(.text)
    OS_InitTaskIdle                          0x00000ae8   ARM Code      76  os_core.o(.text)
    OS_InitEventList                         0x00000b34   ARM Code      84  os_core.o(.text)
    OS_InitTCBList                           0x00000b88   ARM Code     116  os_core.o(.text)
    OS_InitRdyList                           0x00000bfc   ARM Code      92  os_core.o(.text)
    OS_InitMisc                              0x00000c58   ARM Code      88  os_core.o(.text)
    .text                                    0x00001530   Section        0  os_flag.o(.text)
    OS_FlagTaskRdy                           0x000017d0   ARM Code     140  os_flag.o(.text)
    OS_FlagBlock                             0x000019b4   ARM Code     224  os_flag.o(.text)
    .text                                    0x00002080   Section        0  os_mbox.o(.text)
    .text                                    0x000025cc   Section        0  os_mem.o(.text)
    .text                                    0x000028a8   Section        0  os_q.o(.text)
    .text                                    0x0000316c   Section        0  os_sem.o(.text)
    .text                                    0x000035d0   Section        0  os_task.o(.text)
    .text                                    0x00003f6c   Section        0  os_time.o(.text)
    .text                                    0x000041f8   Section        0  _arithmetic.o(.text)
    nand_trans_result                        0x000041f8   ARM Code     196  _arithmetic.o(.text)
    nand_calculate_ecc                       0x000042bc   ARM Code     184  _arithmetic.o(.text)
    nand_correct_data                        0x00004374   ARM Code     488  _arithmetic.o(.text)
    Crc                                      0x0000455c   ARM Code     124  _arithmetic.o(.text)
    CheckSum                                 0x000045d8   ARM Code      52  _arithmetic.o(.text)
    CheckAdd                                 0x0000460c   ARM Code      56  _arithmetic.o(.text)
    Crc1021                                  0x00004644   ARM Code     124  _arithmetic.o(.text)
    .text                                    0x000046d0   Section        0  _ascnumber.o(.text)
    Bcd2Hex                                  0x000046d0   ARM Code      72  _ascnumber.o(.text)
    BCD2Algorism                             0x00004718   ARM Code      96  _ascnumber.o(.text)
    Hex2Bcd                                  0x00004778   ARM Code     108  _ascnumber.o(.text)
    Algorism2BCD                             0x000047e4   ARM Code     120  _ascnumber.o(.text)
    Asc2Bcd                                  0x0000485c   ARM Code      80  _ascnumber.o(.text)
    Bcd2Asc                                  0x000048ac   ARM Code      84  _ascnumber.o(.text)
    Asc2Algorism                             0x00004900   ARM Code     100  _ascnumber.o(.text)
    Algorism2Asc                             0x00004964   ARM Code     176  _ascnumber.o(.text)
    Asc2HexSig                               0x00004a14   ARM Code      96  _ascnumber.o(.text)
    Asc2HexBuf                               0x00004a74   ARM Code     120  _ascnumber.o(.text)
    Hex2AscSig                               0x00004aec   ARM Code      52  _ascnumber.o(.text)
    HexBuf2Asc                               0x00004b20   ARM Code      96  _ascnumber.o(.text)
    Asc2Hex                                  0x00004b80   ARM Code     100  _ascnumber.o(.text)
    Hex2Asc                                  0x00004be4   ARM Code     220  _ascnumber.o(.text)
    JugeAscBcd                               0x00004cc0   ARM Code      72  _ascnumber.o(.text)
    JugeHexBcd                               0x00004d08   ARM Code      84  _ascnumber.o(.text)
    JugeAscHex                               0x00004d5c   ARM Code     136  _ascnumber.o(.text)
    Asc2Float                                0x00004de4   ARM Code     160  _ascnumber.o(.text)
    JugeAscFloat                             0x00004e84   ARM Code     120  _ascnumber.o(.text)
    ClsArray                                 0x00004efc   ARM Code      48  _ascnumber.o(.text)
    MoveByte                                 0x00004f2c   ARM Code      60  _ascnumber.o(.text)
    CompareBuf                               0x00004f68   ARM Code      84  _ascnumber.o(.text)
    CompareVa                                0x00004fbc   ARM Code     208  _ascnumber.o(.text)
    Strsize                                  0x0000508c   ARM Code      52  _ascnumber.o(.text)
    StrATChar                                0x000050c0   ARM Code      96  _ascnumber.o(.text)
    Strsize16                                0x00005120   ARM Code      60  _ascnumber.o(.text)
    LookStr                                  0x0000515c   ARM Code     164  _ascnumber.o(.text)
    LookStrInLength                          0x00005200   ARM Code     156  _ascnumber.o(.text)
    LookStrDown                              0x0000529c   ARM Code     200  _ascnumber.o(.text)
    LookEnable                               0x00005364   ARM Code     144  _ascnumber.o(.text)
    LookShowChar                             0x000053f4   ARM Code      64  _ascnumber.o(.text)
    SeekChar                                 0x00005434   ARM Code     108  _ascnumber.o(.text)
    SeekStr                                  0x000054a0   ARM Code     104  _ascnumber.o(.text)
    MemSpace                                 0x00005508   ARM Code     108  _ascnumber.o(.text)
    IPAsc2INT32                              0x00005574   ARM Code     252  _ascnumber.o(.text)
    INT322IPAsc                              0x00005670   ARM Code     164  _ascnumber.o(.text)
    JugeBufType                              0x00005714   ARM Code     112  _ascnumber.o(.text)
    BinarySearchStr                          0x00005784   ARM Code     208  _ascnumber.o(.text)
    StrToUni                                 0x00005854   ARM Code     216  _ascnumber.o(.text)
    gsmEncode7bit                            0x0000592c   ARM Code     152  _ascnumber.o(.text)
    PduNumber                                0x000059c4   ARM Code      92  _ascnumber.o(.text)
    PhoPdu                                   0x00005a20   ARM Code     628  _ascnumber.o(.text)
    Bit72Bit8                                0x00005c94   ARM Code     548  _ascnumber.o(.text)
    BinarySearchUni                          0x00005eb8   ARM Code     200  _ascnumber.o(.text)
    UniToStr                                 0x00005f80   ARM Code     220  _ascnumber.o(.text)
    ExpPdu                                   0x0000605c   ARM Code     520  _ascnumber.o(.text)
    GetCsq                                   0x00006264   ARM Code      92  _ascnumber.o(.text)
    IP2Char                                  0x000062c0   ARM Code     112  _ascnumber.o(.text)
    Char2IP                                  0x00006330   ARM Code     252  _ascnumber.o(.text)
    LookBufInLength                          0x0000642c   ARM Code     144  _ascnumber.o(.text)
    Value32                                  0x000064bc   ARM Code      96  _ascnumber.o(.text)
    .text                                    0x0000652c   Section        0  _date.o(.text)
    JugeSecond                               0x0000652c   ARM Code      28  _date.o(.text)
    JugeMinute                               0x00006548   ARM Code      28  _date.o(.text)
    JugeHour                                 0x00006564   ARM Code      28  _date.o(.text)
    Bcd2Hex                                  0x00006580   ARM Code      72  _date.o(.text)
    JugeDate                                 0x000065c8   ARM Code     400  _date.o(.text)
    Juge                                     0x00006758   ARM Code     212  _date.o(.text)
    Hex2Bcd                                  0x0000682c   ARM Code     108  _date.o(.text)
    NextDate                                 0x00006898   ARM Code     412  _date.o(.text)
    NextHour                                 0x00006a34   ARM Code      96  _date.o(.text)
    NextMinute                               0x00006a94   ARM Code      96  _date.o(.text)
    NextSecond                               0x00006af4   ARM Code      96  _date.o(.text)
    Next                                     0x00006b54   ARM Code     120  _date.o(.text)
    BackDate                                 0x00006bcc   ARM Code     384  _date.o(.text)
    BackHour                                 0x00006d4c   ARM Code      96  _date.o(.text)
    BackMinute                               0x00006dac   ARM Code      96  _date.o(.text)
    BackSecond                               0x00006e0c   ARM Code      96  _date.o(.text)
    Back                                     0x00006e6c   ARM Code     120  _date.o(.text)
    GetWeek                                  0x00006ee4   ARM Code     292  _date.o(.text)
    .text                                    0x0000700c   Section        0  _can.o(.text)
    Init                                     0x0000700c   ARM Code     268  _can.o(.text)
    ClearSem                                 0x00007118   ARM Code      84  _can.o(.text)
    Open1                                    0x0000716c   ARM Code     192  _can.o(.text)
    Open0                                    0x0000722c   ARM Code     192  _can.o(.text)
    Open                                     0x000072ec   ARM Code      64  _can.o(.text)
    Close1                                   0x0000732c   ARM Code      84  _can.o(.text)
    Close0                                   0x00007380   ARM Code      84  _can.o(.text)
    Close                                    0x000073d4   ARM Code      52  _can.o(.text)
    Read1                                    0x00007408   ARM Code     184  _can.o(.text)
    Read0                                    0x000074c0   ARM Code     184  _can.o(.text)
    Read                                     0x00007578   ARM Code      64  _can.o(.text)
    Write1                                   0x000075b8   ARM Code     116  _can.o(.text)
    Write0                                   0x0000762c   ARM Code     128  _can.o(.text)
    Write                                    0x000076ac   ARM Code      64  _can.o(.text)
    .text                                    0x000078bc   Section        0  _rtc.o(.text)
    RTCInit                                  0x000078bc   ARM Code      80  _rtc.o(.text)
    Init1                                    0x0000790c   ARM Code      20  _rtc.o(.text)
    Init                                     0x00007920   ARM Code     104  _rtc.o(.text)
    Read1                                    0x00007988   ARM Code     188  _rtc.o(.text)
    Read                                     0x00007a44   ARM Code      64  _rtc.o(.text)
    Write1                                   0x00007a84   ARM Code     180  _rtc.o(.text)
    Write                                    0x00007b38   ARM Code      64  _rtc.o(.text)
    RTCStart                                 0x00007b78   ARM Code      32  _rtc.o(.text)
    RTCStop                                  0x00007b98   ARM Code      24  _rtc.o(.text)
    RTC_CTCReset                             0x00007bb0   ARM Code      24  _rtc.o(.text)
    .text                                    0x00007be0   Section        0  _spi.o(.text)
    Open                                     0x00007be0   ARM Code     172  _spi.o(.text)
    DelaySpi                                 0x00007c8c   ARM Code      32  _spi.o(.text)
    Start                                    0x00007cac   ARM Code     120  _spi.o(.text)
    RwSpi                                    0x00007d24   ARM Code     196  _spi.o(.text)
    Write                                    0x00007de8   ARM Code     156  _spi.o(.text)
    Read                                     0x00007e84   ARM Code     188  _spi.o(.text)
    JugeBuf                                  0x00007f40   ARM Code     204  _spi.o(.text)
    JugeByte                                 0x0000800c   ARM Code     184  _spi.o(.text)
    End                                      0x000080c4   ARM Code      84  _spi.o(.text)
    Close                                    0x00008118   ARM Code      32  _spi.o(.text)
    .text                                    0x00008158   Section        0  _uart.o(.text)
    Init                                     0x00008158   ARM Code     628  _uart.o(.text)
    ClearSem                                 0x000083cc   ARM Code      84  _uart.o(.text)
    Open4                                    0x00008420   ARM Code     712  _uart.o(.text)
    Open3                                    0x000086e8   ARM Code     532  _uart.o(.text)
    Open2                                    0x000088fc   ARM Code     532  _uart.o(.text)
    Open1                                    0x00008b10   ARM Code     544  _uart.o(.text)
    Open0                                    0x00008d30   ARM Code     740  _uart.o(.text)
    Open                                     0x00009014   ARM Code     124  _uart.o(.text)
    Close4                                   0x00009090   ARM Code      48  _uart.o(.text)
    Close3                                   0x000090c0   ARM Code      96  _uart.o(.text)
    Close2                                   0x00009120   ARM Code      92  _uart.o(.text)
    Close1                                   0x0000917c   ARM Code      92  _uart.o(.text)
    Close0                                   0x000091d8   ARM Code      92  _uart.o(.text)
    Close                                    0x00009234   ARM Code     100  _uart.o(.text)
    Receive4Byte                             0x00009298   ARM Code     116  _uart.o(.text)
    Read4                                    0x0000930c   ARM Code      84  _uart.o(.text)
    Receive3Byte                             0x00009360   ARM Code     116  _uart.o(.text)
    Read3                                    0x000093d4   ARM Code      84  _uart.o(.text)
    Receive2Byte                             0x00009428   ARM Code     116  _uart.o(.text)
    Read2                                    0x0000949c   ARM Code      84  _uart.o(.text)
    Receive1Byte                             0x000094f0   ARM Code     116  _uart.o(.text)
    Read1                                    0x00009564   ARM Code      84  _uart.o(.text)
    Receive0Byte                             0x000095b8   ARM Code     116  _uart.o(.text)
    Read0                                    0x0000962c   ARM Code      84  _uart.o(.text)
    Read                                     0x00009680   ARM Code     148  _uart.o(.text)
    Write4                                   0x00009714   ARM Code     132  _uart.o(.text)
    Write3                                   0x00009798   ARM Code      80  _uart.o(.text)
    Write2                                   0x000097e8   ARM Code      80  _uart.o(.text)
    Write1                                   0x00009838   ARM Code      80  _uart.o(.text)
    Write0                                   0x00009888   ARM Code      80  _uart.o(.text)
    Write                                    0x000098d8   ARM Code     148  _uart.o(.text)
    .text                                    0x0000a044   Section        0  adchard.o(.text)
    Init                                     0x0000a044   ARM Code     160  adchard.o(.text)
    Open                                     0x0000a0e4   ARM Code     708  adchard.o(.text)
    Close                                    0x0000a3a8   ARM Code     172  adchard.o(.text)
    Read                                     0x0000a454   ARM Code    1040  adchard.o(.text)
    .text                                    0x0000a898   Section        0  ds18b20.o(.text)
    Init                                     0x0000a898   ARM Code      72  ds18b20.o(.text)
    Open                                     0x0000a8e0   ARM Code     260  ds18b20.o(.text)
    DS18B20crc8                              0x0000a9e4   ARM Code      64  ds18b20.o(.text)
    delay_10us                               0x0000aa24   ARM Code      40  ds18b20.o(.text)
    DS18B20Reset                             0x0000aa4c   ARM Code     216  ds18b20.o(.text)
    delay_1us                                0x0000ab24   ARM Code      40  ds18b20.o(.text)
    DS18B20ReadBit                           0x0000ab4c   ARM Code     248  ds18b20.o(.text)
    DS18B20ReadByte                          0x0000ac44   ARM Code      96  ds18b20.o(.text)
    DS18B20WriteBit                          0x0000aca4   ARM Code     216  ds18b20.o(.text)
    DS18B20WriteByte                         0x0000ad7c   ARM Code      76  ds18b20.o(.text)
    DS18B20ReadTemp                          0x0000adc8   ARM Code     332  ds18b20.o(.text)
    Read                                     0x0000af14   ARM Code     248  ds18b20.o(.text)
    Close                                    0x0000b00c   ARM Code     168  ds18b20.o(.text)
    .text                                    0x0000b0cc   Section        0  huaiweigprs.o(.text)
    Init                                     0x0000b0cc   ARM Code      36  huaiweigprs.o(.text)
    Read                                     0x0000b0f0   ARM Code     216  huaiweigprs.o(.text)
    Huawei_CloseShow                         0x0000b1c8   ARM Code     104  huaiweigprs.o(.text)
    ClearNoDisplay                           0x0000b230   ARM Code     156  huaiweigprs.o(.text)
    GetChipID                                0x0000b2cc   ARM Code     172  huaiweigprs.o(.text)
    Huawei_GetModermState                    0x0000b378   ARM Code     236  huaiweigprs.o(.text)
    Huawei_GetModermCard                     0x0000b464   ARM Code     160  huaiweigprs.o(.text)
    SeekChar                                 0x0000b504   ARM Code     108  huaiweigprs.o(.text)
    Huawei_GetCenterNumber                   0x0000b570   ARM Code     304  huaiweigprs.o(.text)
    Huawei_GetMessage                        0x0000b6a0   ARM Code     644  huaiweigprs.o(.text)
    Huawei_SetTxtOrPdu                       0x0000b924   ARM Code     220  huaiweigprs.o(.text)
    Huawei_SeeTxtOrPdu                       0x0000ba00   ARM Code     212  huaiweigprs.o(.text)
    Huawei_MsgSend                           0x0000bad4   ARM Code     152  huaiweigprs.o(.text)
    Huawei_MsgSendData                       0x0000bb6c   ARM Code     152  huaiweigprs.o(.text)
    Huawei_SeeCarrier                        0x0000bc04   ARM Code     248  huaiweigprs.o(.text)
    Huawei_SQ                                0x0000bcfc   ARM Code     252  huaiweigprs.o(.text)
    Huawei_DelMsg                            0x0000bdf8   ARM Code     164  huaiweigprs.o(.text)
    Huawei_Set_Mem                           0x0000be9c   ARM Code     188  huaiweigprs.o(.text)
    Huawei_MessSet                           0x0000bf58   ARM Code     124  huaiweigprs.o(.text)
    Huawei_Upadate                           0x0000bfd4   ARM Code     112  huaiweigprs.o(.text)
    Huawei_Reg                               0x0000c044   ARM Code     256  huaiweigprs.o(.text)
    Huawei_CLIP                              0x0000c144   ARM Code     128  huaiweigprs.o(.text)
    Huawei_ATD                               0x0000c1c4   ARM Code     340  huaiweigprs.o(.text)
    Huawei_Chup                              0x0000c318   ARM Code     116  huaiweigprs.o(.text)
    Huawei_ATA                               0x0000c38c   ARM Code     244  huaiweigprs.o(.text)
    Huawei_IMEI                              0x0000c480   ARM Code     180  huaiweigprs.o(.text)
    Huawei_CGDCONT                           0x0000c534   ARM Code     240  huaiweigprs.o(.text)
    Huawei_Etcpip                            0x0000c624   ARM Code     396  huaiweigprs.o(.text)
    Huawei_IOMODE                            0x0000c7b0   ARM Code     108  huaiweigprs.o(.text)
    Huawei_IPOPENX                           0x0000c81c   ARM Code     612  huaiweigprs.o(.text)
    Huawei_IPSENDX                           0x0000ca80   ARM Code     388  huaiweigprs.o(.text)
    Huawei_SeeDataRead                       0x0000cc04   ARM Code     268  huaiweigprs.o(.text)
    Huawei_IPDR                              0x0000cd10   ARM Code     712  huaiweigprs.o(.text)
    Huawei_JugeETCPIP                        0x0000cfd8   ARM Code     896  huaiweigprs.o(.text)
    Huawei_DNSR                              0x0000d358   ARM Code     248  huaiweigprs.o(.text)
    Huawei_IPR                               0x0000d450   ARM Code     156  huaiweigprs.o(.text)
    Huawei_CLCC                              0x0000d4ec   ARM Code     944  huaiweigprs.o(.text)
    Huawei_IPCLOSE                           0x0000d89c   ARM Code     208  huaiweigprs.o(.text)
    Huawei_LogOnTCPIP                        0x0000d96c   ARM Code     104  huaiweigprs.o(.text)
    Huawei_SEEIPCLOSE                        0x0000d9d4   ARM Code     404  huaiweigprs.o(.text)
    Huawei_PowerDown                         0x0000db68   ARM Code      72  huaiweigprs.o(.text)
    Huawei_SeeCGDCONT                        0x0000dbb0   ARM Code     416  huaiweigprs.o(.text)
    Huawei_SendExtension                     0x0000dd50   ARM Code     152  huaiweigprs.o(.text)
    Huawei_SetVolume                         0x0000dde8   ARM Code     112  huaiweigprs.o(.text)
    .text                                    0x0000de70   Section        0  gprshard.o(.text)
    Init                                     0x0000de70   ARM Code      36  gprshard.o(.text)
    InitModerm                               0x0000de94   ARM Code      76  gprshard.o(.text)
    ModermCom1                               0x0000dee0   ARM Code     932  gprshard.o(.text)
    ModermCom                                0x0000e284   ARM Code     108  gprshard.o(.text)
    ClearNoDisplay                           0x0000e2f0   ARM Code     156  gprshard.o(.text)
    GetChipID                                0x0000e38c   ARM Code     132  gprshard.o(.text)
    CloseShow                                0x0000e410   ARM Code      36  gprshard.o(.text)
    SetBps                                   0x0000e434   ARM Code      88  gprshard.o(.text)
    GetBpsAT                                 0x0000e48c   ARM Code      36  gprshard.o(.text)
    LookChipID                               0x0000e4b0   ARM Code     388  gprshard.o(.text)
    PowerUp                                  0x0000e634   ARM Code     176  gprshard.o(.text)
    PowerDown                                0x0000e6e4   ARM Code      84  gprshard.o(.text)
    Read                                     0x0000e738   ARM Code      72  gprshard.o(.text)
    MODEM_Dly100ms                           0x0000e780   ARM Code     128  gprshard.o(.text)
    .text                                    0x0000e83c   Section        0  less.o(.text)
    Init                                     0x0000e83c   ARM Code     344  less.o(.text)
    Init1                                    0x0000e994   ARM Code      16  less.o(.text)
    ReadData                                 0x0000e9a4   ARM Code      48  less.o(.text)
    AgreeData                                0x0000e9d4   ARM Code     432  less.o(.text)
    WriteData                                0x0000eb84   ARM Code      48  less.o(.text)
    SendData                                 0x0000ebb4   ARM Code     200  less.o(.text)
    ClsData                                  0x0000ec7c   ARM Code      52  less.o(.text)
    Configuration                            0x0000ecb0   ARM Code     472  less.o(.text)
    Lookfd                                   0x0000ee88   ARM Code      56  less.o(.text)
    Open                                     0x0000eec0   ARM Code     316  less.o(.text)
    Open1                                    0x0000effc   ARM Code      72  less.o(.text)
    Close                                    0x0000f044   ARM Code     120  less.o(.text)
    Close1                                   0x0000f0bc   ARM Code      64  less.o(.text)
    LookID                                   0x0000f0fc   ARM Code      96  less.o(.text)
    ExplainData                              0x0000f15c   ARM Code     236  less.o(.text)
    ExplainState                             0x0000f248   ARM Code     348  less.o(.text)
    GetTimeAdd                               0x0000f3a4   ARM Code     244  less.o(.text)
    Read                                     0x0000f498   ARM Code     624  less.o(.text)
    Read1                                    0x0000f708   ARM Code      80  less.o(.text)
    GetState                                 0x0000f758   ARM Code     104  less.o(.text)
    GetState1                                0x0000f7c0   ARM Code      72  less.o(.text)
    .text                                    0x0000f808   Section        0  acc.o(.text)
    Init                                     0x0000f808   ARM Code     144  acc.o(.text)
    Open                                     0x0000f898   ARM Code     112  acc.o(.text)
    Close                                    0x0000f908   ARM Code      92  acc.o(.text)
    GetTimeAdd                               0x0000f964   ARM Code     244  acc.o(.text)
    Read                                     0x0000fa58   ARM Code     256  acc.o(.text)
    .text                                    0x0000fb78   Section        0  oil.o(.text)
    Init                                     0x0000fb78   ARM Code     104  oil.o(.text)
    Open                                     0x0000fbe0   ARM Code     236  oil.o(.text)
    Close                                    0x0000fccc   ARM Code      92  oil.o(.text)
    GetTimeAdd                               0x0000fd28   ARM Code     244  oil.o(.text)
    Read                                     0x0000fe1c   ARM Code     480  oil.o(.text)
    .text                                    0x00010028   Section        0  sensor.o(.text)
    Init                                     0x00010028   ARM Code     132  sensor.o(.text)
    Open                                     0x000100ac   ARM Code     596  sensor.o(.text)
    Close                                    0x00010300   ARM Code     216  sensor.o(.text)
    Read                                     0x000103d8   ARM Code     184  sensor.o(.text)
    GetState                                 0x00010490   ARM Code     264  sensor.o(.text)
    GetSi                                    0x00010598   ARM Code      92  sensor.o(.text)
    Get                                      0x000105f4   ARM Code     164  sensor.o(.text)
    GetPar2ID                                0x00010698   ARM Code     160  sensor.o(.text)
    GetID2Par                                0x00010738   ARM Code     148  sensor.o(.text)
    .text                                    0x000107e0   Section        0  gps.o(.text)
    Init                                     0x000107e0   ARM Code     232  gps.o(.text)
    Open                                     0x000108c8   ARM Code     140  gps.o(.text)
    Close                                    0x00010954   ARM Code     152  gps.o(.text)
    SeekChar                                 0x000109ec   ARM Code     100  gps.o(.text)
    Parse_GPGGA_Height                       0x00010a50   ARM Code     232  gps.o(.text)
    Parse_GPGGA_StarNumber                   0x00010b38   ARM Code     196  gps.o(.text)
    Parse_GPGGA                              0x00010bfc   ARM Code      92  gps.o(.text)
    Parse_GPRMC_Angle                        0x00010c58   ARM Code     192  gps.o(.text)
    Parse_GPRMC_Speed                        0x00010d18   ARM Code     168  gps.o(.text)
    Parse_GPRMC_Long                         0x00010dc0   ARM Code     356  gps.o(.text)
    Parse_GPRMC_Lat                          0x00010f24   ARM Code     340  gps.o(.text)
    Parse_GPRMC_GetTime                      0x00011078   ARM Code     356  gps.o(.text)
    Parse_GPRMC_LocationTrue                 0x000111dc   ARM Code     112  gps.o(.text)
    Parse_GPRMC                              0x0001124c   ARM Code     320  gps.o(.text)
    JugeOrder                                0x0001138c   ARM Code     520  gps.o(.text)
    GpsCommInput                             0x00011594   ARM Code     272  gps.o(.text)
    Read                                     0x000116a4   ARM Code     160  gps.o(.text)
    GetState                                 0x00011744   ARM Code      84  gps.o(.text)
    .text                                    0x0001179c   Section        0  display.o(.text)
    Init                                     0x0001179c   ARM Code      84  display.o(.text)
    Open                                     0x000117f0   ARM Code     188  display.o(.text)
    CommType2App                             0x000118ac   ARM Code     580  display.o(.text)
    AgreeData                                0x00011af0   ARM Code     244  display.o(.text)
    Agree                                    0x00011be4   ARM Code     888  display.o(.text)
    Read                                     0x00011f5c   ARM Code     296  display.o(.text)
    Read1                                    0x00012084   ARM Code      80  display.o(.text)
    Close                                    0x000120d4   ARM Code      92  display.o(.text)
    Send                                     0x00012130   ARM Code     260  display.o(.text)
    Host_Answer                              0x00012234   ARM Code      60  display.o(.text)
    Host_DeliverCentr                        0x00012270   ARM Code      44  display.o(.text)
    Host_SysInfor                            0x0001229c   ARM Code     424  display.o(.text)
    Host_Phone                               0x00012444   ARM Code     132  display.o(.text)
    Host_InitStart                           0x000124c8   ARM Code      40  display.o(.text)
    Host_InitOver                            0x000124f0   ARM Code      40  display.o(.text)
    Host_HostSoft                            0x00012518   ARM Code      52  display.o(.text)
    Host_ConInfor                            0x0001254c   ARM Code     152  display.o(.text)
    App2CommType                             0x000125e4   ARM Code     732  display.o(.text)
    Host_ParAnswer                           0x000128c0   ARM Code     272  display.o(.text)
    Int162Asc                                0x000129d0   ARM Code     112  display.o(.text)
    Asc2Int16                                0x00012a40   ARM Code     124  display.o(.text)
    .text                                    0x00012ac0   Section        0  temperture.o(.text)
    Init                                     0x00012ac0   ARM Code     192  temperture.o(.text)
    Open                                     0x00012b80   ARM Code     516  temperture.o(.text)
    Close                                    0x00012d84   ARM Code     144  temperture.o(.text)
    GetTimeAdd                               0x00012e14   ARM Code     244  temperture.o(.text)
    Read                                     0x00012f08   ARM Code     268  temperture.o(.text)
    GetState                                 0x00013014   ARM Code     116  temperture.o(.text)
    .text                                    0x000130b4   Section        0  mileage.o(.text)
    Init                                     0x000130b4   ARM Code     152  mileage.o(.text)
    Open                                     0x0001314c   ARM Code     260  mileage.o(.text)
    Close                                    0x00013250   ARM Code     116  mileage.o(.text)
    CalcMil                                  0x000132c4   ARM Code    1040  mileage.o(.text)
    GetTimeAdd                               0x000136d4   ARM Code     244  mileage.o(.text)
    Read                                     0x000137c8   ARM Code     828  mileage.o(.text)
    .text                                    0x00013b48   Section        0  gprstzxy.o(.text)
    Init                                     0x00013b48   ARM Code     120  gprstzxy.o(.text)
    Open                                     0x00013bc0   ARM Code     196  gprstzxy.o(.text)
    Close                                    0x00013c84   ARM Code      92  gprstzxy.o(.text)
    Read                                     0x00013ce0   ARM Code     204  gprstzxy.o(.text)
    .text                                    0x00013dbc   Section        0  uarttzxy.o(.text)
    Init                                     0x00013dbc   ARM Code     120  uarttzxy.o(.text)
    Open                                     0x00013e34   ARM Code     268  uarttzxy.o(.text)
    Close                                    0x00013f40   ARM Code      92  uarttzxy.o(.text)
    Agree                                    0x00013f9c   ARM Code     256  uarttzxy.o(.text)
    Send                                     0x0001409c   ARM Code     144  uarttzxy.o(.text)
    Read                                     0x0001412c   ARM Code     180  uarttzxy.o(.text)
    .text                                    0x00014200   Section        0  arealrm.o(.text)
    Init                                     0x00014200   ARM Code     132  arealrm.o(.text)
    Open                                     0x00014284   ARM Code     356  arealrm.o(.text)
    Close                                    0x000143e8   ARM Code     124  arealrm.o(.text)
    CalcMil                                  0x00014464   ARM Code    1016  arealrm.o(.text)
    JugeAreacirc                             0x0001485c   ARM Code     124  arealrm.o(.text)
    JugeArearect                             0x000148d8   ARM Code     116  arealrm.o(.text)
    Read                                     0x0001494c   ARM Code     260  arealrm.o(.text)
    GetTimeAdd                               0x00014a50   ARM Code     244  arealrm.o(.text)
    .text                                    0x00014b7c   Section        0  help.o(.text)
    Init                                     0x00014b7c   ARM Code     104  help.o(.text)
    Open                                     0x00014be4   ARM Code     112  help.o(.text)
    Close                                    0x00014c54   ARM Code      92  help.o(.text)
    GetTimeAdd                               0x00014cb0   ARM Code     244  help.o(.text)
    Read                                     0x00014da4   ARM Code     268  help.o(.text)
    .text                                    0x00014ecc   Section        0  onoroff.o(.text)
    Init                                     0x00014ecc   ARM Code     124  onoroff.o(.text)
    Open                                     0x00014f48   ARM Code     112  onoroff.o(.text)
    Close                                    0x00014fb8   ARM Code      92  onoroff.o(.text)
    Read                                     0x00015014   ARM Code     208  onoroff.o(.text)
    GetTimeAdd                               0x000150e4   ARM Code     244  onoroff.o(.text)
    .text                                    0x000151ec   Section        0  adc1.o(.text)
    Init                                     0x000151ec   ARM Code      84  adc1.o(.text)
    Open                                     0x00015240   ARM Code     168  adc1.o(.text)
    Close                                    0x000152e8   ARM Code      92  adc1.o(.text)
    Read                                     0x00015344   ARM Code     188  adc1.o(.text)
    .text                                    0x00015410   Section        0  smstzxy.o(.text)
    Init                                     0x00015410   ARM Code     120  smstzxy.o(.text)
    Open                                     0x00015488   ARM Code     252  smstzxy.o(.text)
    Close                                    0x00015584   ARM Code      92  smstzxy.o(.text)
    Agree                                    0x000155e0   ARM Code     752  smstzxy.o(.text)
    Send                                     0x000158d0   ARM Code     408  smstzxy.o(.text)
    Read                                     0x00015a68   ARM Code     180  smstzxy.o(.text)
    .text                                    0x00015b50   Section        0  _rwfile.o(.text)
    ClsArray                                 0x00015b50   ARM Code      44  _rwfile.o(.text)
    Init                                     0x00015b7c   ARM Code      44  _rwfile.o(.text)
    Init1                                    0x00015ba8   ARM Code      56  _rwfile.o(.text)
    Crc                                      0x00015be0   ARM Code     116  _rwfile.o(.text)
    WriteRecode                              0x00015c54   ARM Code     236  _rwfile.o(.text)
    MoveByte                                 0x00015d40   ARM Code      44  _rwfile.o(.text)
    ReadRecode                               0x00015d6c   ARM Code     484  _rwfile.o(.text)
    CompareBuf                               0x00015f50   ARM Code      68  _rwfile.o(.text)
    LookSpace                                0x00015f94   ARM Code     312  _rwfile.o(.text)
    LookChip                                 0x000160cc   ARM Code      60  _rwfile.o(.text)
    CreateBin                                0x00016108   ARM Code     448  _rwfile.o(.text)
    CreateBin1                               0x000162c8   ARM Code      76  _rwfile.o(.text)
    CreateRecoder                            0x00016314   ARM Code     548  _rwfile.o(.text)
    CreateRecoder1                           0x00016538   ARM Code      92  _rwfile.o(.text)
    LookHeadTailFF                           0x00016594   ARM Code     224  _rwfile.o(.text)
    GetHeadTailPoint                         0x00016674   ARM Code     312  _rwfile.o(.text)
    GetFileInfor                             0x000167ac   ARM Code     280  _rwfile.o(.text)
    LookFileNameAgain                        0x000168c4   ARM Code     216  _rwfile.o(.text)
    LookFileBufSpace                         0x0001699c   ARM Code      72  _rwfile.o(.text)
    Open                                     0x000169e4   ARM Code     300  _rwfile.o(.text)
    Open1                                    0x00016b10   ARM Code      76  _rwfile.o(.text)
    Close                                    0x00016b5c   ARM Code      32  _rwfile.o(.text)
    Close1                                   0x00016b7c   ARM Code      64  _rwfile.o(.text)
    ReadBin                                  0x00016bbc   ARM Code     232  _rwfile.o(.text)
    ReadBin1                                 0x00016ca4   ARM Code      88  _rwfile.o(.text)
    WriteBin                                 0x00016cfc   ARM Code     236  _rwfile.o(.text)
    WriteBin1                                0x00016de8   ARM Code      88  _rwfile.o(.text)
    GetJlNum                                 0x00016e40   ARM Code     188  _rwfile.o(.text)
    ReadRecoder1                             0x00016efc   ARM Code    1788  _rwfile.o(.text)
    ReadRecoder2                             0x000175f8   ARM Code      84  _rwfile.o(.text)
    fWriteHeadTail                           0x0001764c   ARM Code     620  _rwfile.o(.text)
    UpdateHeadTailPoint                      0x000178b8   ARM Code     336  _rwfile.o(.text)
    WriteRecoder1                            0x00017a08   ARM Code    1332  _rwfile.o(.text)
    WriteRecoder2                            0x00017f3c   ARM Code      84  _rwfile.o(.text)
    GetJlNum1                                0x00017f90   ARM Code      64  _rwfile.o(.text)
    Seek                                     0x00017fd0   ARM Code      12  _rwfile.o(.text)
    Seek1                                    0x00017fdc   ARM Code      88  _rwfile.o(.text)
    SeekSize                                 0x00018034   ARM Code      32  _rwfile.o(.text)
    SeekSize1                                0x00018054   ARM Code     108  _rwfile.o(.text)
    ReadHeadTail                             0x000180c0   ARM Code     120  _rwfile.o(.text)
    ReadPor                                  0x00018138   ARM Code      84  _rwfile.o(.text)
    GetPointNum                              0x0001818c   ARM Code     136  _rwfile.o(.text)
    .text                                    0x0001822c   Section        0  _downfile.o(.text)
    ClsArray                                 0x0001822c   ARM Code      44  _downfile.o(.text)
    Init                                     0x00018258   ARM Code      60  _downfile.o(.text)
    MoveByte                                 0x00018294   ARM Code      44  _downfile.o(.text)
    Strsize                                  0x000182c0   ARM Code      56  _downfile.o(.text)
    Open1                                    0x000182f8   ARM Code     328  _downfile.o(.text)
    Open                                     0x00018440   ARM Code      72  _downfile.o(.text)
    CreateFile1                              0x00018488   ARM Code     392  _downfile.o(.text)
    CreateFile                               0x00018610   ARM Code      72  _downfile.o(.text)
    ReadFile1                                0x00018658   ARM Code     300  _downfile.o(.text)
    ReadFile                                 0x00018784   ARM Code      88  _downfile.o(.text)
    WriteFile1                               0x000187dc   ARM Code     276  _downfile.o(.text)
    WriteFile                                0x000188f0   ARM Code      80  _downfile.o(.text)
    Close1                                   0x00018940   ARM Code     136  _downfile.o(.text)
    Close                                    0x000189c8   ARM Code      64  _downfile.o(.text)
    GetFileProperty1                         0x00018a08   ARM Code     104  _downfile.o(.text)
    GetFileProperty                          0x00018a70   ARM Code      72  _downfile.o(.text)
    SetFileLength1                           0x00018ab8   ARM Code     148  _downfile.o(.text)
    SetFileLength                            0x00018b4c   ARM Code      72  _downfile.o(.text)
    SetFileName1                             0x00018b94   ARM Code     192  _downfile.o(.text)
    SetFileName                              0x00018c54   ARM Code      72  _downfile.o(.text)
    CleanProperty1                           0x00018c9c   ARM Code     128  _downfile.o(.text)
    CleanProperty                            0x00018d1c   ARM Code      64  _downfile.o(.text)
    .text                                    0x00018d78   Section        0  sensorcontr.o(.text)
    Task                                     0x00018d78   ARM Code     392  sensorcontr.o(.text)
    Init                                     0x00018f00   ARM Code     156  sensorcontr.o(.text)
    Open                                     0x00018f9c   ARM Code     248  sensorcontr.o(.text)
    Close                                    0x00019094   ARM Code      80  sensorcontr.o(.text)
    .text                                    0x00019118   Section        0  gprs.o(.text)
    OperPhone                                0x00019118   ARM Code     616  gprs.o(.text)
    OperMessage                              0x00019380   ARM Code     712  gprs.o(.text)
    CloseIP                                  0x00019648   ARM Code     724  gprs.o(.text)
    InitGprs                                 0x0001991c   ARM Code     476  gprs.o(.text)
    BackUpIP                                 0x00019af8   ARM Code     112  gprs.o(.text)
    InitPhone                                0x00019b68   ARM Code      84  gprs.o(.text)
    InitMessage                              0x00019bbc   ARM Code     340  gprs.o(.text)
    InitSys                                  0x00019d10   ARM Code     336  gprs.o(.text)
    ClosePhone                               0x00019e60   ARM Code      20  gprs.o(.text)
    CloseMessage                             0x00019e74   ARM Code      84  gprs.o(.text)
    CloseSys                                 0x00019ec8   ARM Code      60  gprs.o(.text)
    BackUpSys2                               0x00019f04   ARM Code     228  gprs.o(.text)
    BackUpSys                                0x00019fe8   ARM Code     128  gprs.o(.text)
    JugeMessage                              0x0001a068   ARM Code     132  gprs.o(.text)
    SendIP                                   0x0001a0ec   ARM Code     224  gprs.o(.text)
    GetTimeAdd                               0x0001a1cc   ARM Code     212  gprs.o(.text)
    OperIPData                               0x0001a2a0   ARM Code    1336  gprs.o(.text)
    JugeSys                                  0x0001a7d8   ARM Code     384  gprs.o(.text)
    Task                                     0x0001a958   ARM Code     408  gprs.o(.text)
    Init                                     0x0001aaf0   ARM Code     404  gprs.o(.text)
    InitSys1                                 0x0001ac84   ARM Code      56  gprs.o(.text)
    InitMessage1                             0x0001acbc   ARM Code      56  gprs.o(.text)
    InitPhone1                               0x0001acf4   ARM Code      56  gprs.o(.text)
    InitGprs1                                0x0001ad2c   ARM Code      64  gprs.o(.text)
    OpenSys                                  0x0001ad6c   ARM Code      72  gprs.o(.text)
    OpenSys1                                 0x0001adb4   ARM Code      64  gprs.o(.text)
    OpenMessage                              0x0001adf4   ARM Code      72  gprs.o(.text)
    OpenMessage1                             0x0001ae3c   ARM Code      64  gprs.o(.text)
    OpenIP                                   0x0001ae7c   ARM Code     572  gprs.o(.text)
    OpenIP1                                  0x0001b0b8   ARM Code      80  gprs.o(.text)
    OpenPhone                                0x0001b108   ARM Code      72  gprs.o(.text)
    OpenPhone1                               0x0001b150   ARM Code      64  gprs.o(.text)
    CloseSys1                                0x0001b190   ARM Code      56  gprs.o(.text)
    CloseIP1                                 0x0001b1c8   ARM Code      80  gprs.o(.text)
    CloseMessage1                            0x0001b218   ARM Code      56  gprs.o(.text)
    ClosePhone1                              0x0001b250   ARM Code      56  gprs.o(.text)
    GetSysState                              0x0001b288   ARM Code      72  gprs.o(.text)
    GetSysState1                             0x0001b2d0   ARM Code      64  gprs.o(.text)
    GetMessageState                          0x0001b310   ARM Code      72  gprs.o(.text)
    GetMessageState1                         0x0001b358   ARM Code      64  gprs.o(.text)
    GetPhoneState                            0x0001b398   ARM Code      76  gprs.o(.text)
    GetPhoneState1                           0x0001b3e4   ARM Code      64  gprs.o(.text)
    GetIPState                               0x0001b424   ARM Code     132  gprs.o(.text)
    GetIPState1                              0x0001b4a8   ARM Code      72  gprs.o(.text)
    GetIpPro                                 0x0001b4f0   ARM Code      64  gprs.o(.text)
    GetIpPro1                                0x0001b530   ARM Code      72  gprs.o(.text)
    DNSRIP                                   0x0001b578   ARM Code     104  gprs.o(.text)
    DNSRIP1                                  0x0001b5e0   ARM Code      72  gprs.o(.text)
    ReadMessage                              0x0001b628   ARM Code     196  gprs.o(.text)
    ReadMessage1                             0x0001b6ec   ARM Code      72  gprs.o(.text)
    ReadIP                                   0x0001b734   ARM Code     152  gprs.o(.text)
    ReadIP1                                  0x0001b7cc   ARM Code      80  gprs.o(.text)
    ReadPhone                                0x0001b81c   ARM Code     124  gprs.o(.text)
    ReadPhone1                               0x0001b898   ARM Code      64  gprs.o(.text)
    AgreePhone                               0x0001b8d8   ARM Code      80  gprs.o(.text)
    AgreePhone1                              0x0001b928   ARM Code      56  gprs.o(.text)
    CloseCall                                0x0001b960   ARM Code      52  gprs.o(.text)
    CloseCall1                               0x0001b994   ARM Code      56  gprs.o(.text)
    SendMessage                              0x0001b9cc   ARM Code     344  gprs.o(.text)
    SendMessage1                             0x0001bb24   ARM Code      72  gprs.o(.text)
    SendIP1                                  0x0001bb6c   ARM Code      80  gprs.o(.text)
    SendPhone                                0x0001bbbc   ARM Code     240  gprs.o(.text)
    SendPhone1                               0x0001bcac   ARM Code      72  gprs.o(.text)
    SetVolume                                0x0001bcf4   ARM Code     168  gprs.o(.text)
    SetVolume1                               0x0001bd9c   ARM Code      64  gprs.o(.text)
    GetCurIPState                            0x0001bddc   ARM Code     104  gprs.o(.text)
    JugeIPData                               0x0001be44   ARM Code     440  gprs.o(.text)
    BackUpAPNAndIp                           0x0001bffc   ARM Code     128  gprs.o(.text)
    .text                                    0x0001c084   Section        0  timer.o(.text)
    JugeEvent                                0x0001c084   ARM Code     520  timer.o(.text)
    GetTimeAdd                               0x0001c28c   ARM Code     244  timer.o(.text)
    Task                                     0x0001c380   ARM Code     156  timer.o(.text)
    Init                                     0x0001c41c   ARM Code     108  timer.o(.text)
    SeekSpace                                0x0001c488   ARM Code      64  timer.o(.text)
    Open                                     0x0001c4c8   ARM Code     160  timer.o(.text)
    Close                                    0x0001c568   ARM Code      80  timer.o(.text)
    Read                                     0x0001c5b8   ARM Code      80  timer.o(.text)
    Enable                                   0x0001c608   ARM Code     108  timer.o(.text)
    DisEnable                                0x0001c674   ARM Code     108  timer.o(.text)
    GetEnable                                0x0001c6e0   ARM Code     112  timer.o(.text)
    GetPro                                   0x0001c750   ARM Code     116  timer.o(.text)
    EditPro                                  0x0001c7c4   ARM Code     132  timer.o(.text)
    .text                                    0x0001c874   Section        0  photo.o(.text)
    CheckSum                                 0x0001c874   ARM Code      60  photo.o(.text)
    ReadPhoto                                0x0001c8b0   ARM Code     488  photo.o(.text)
    PhotoCommon                              0x0001ca98   ARM Code     456  photo.o(.text)
    Photo                                    0x0001cc60   ARM Code     372  photo.o(.text)
    Task                                     0x0001cdd4   ARM Code     152  photo.o(.text)
    Init                                     0x0001ce6c   ARM Code     156  photo.o(.text)
    Open                                     0x0001cf08   ARM Code      72  photo.o(.text)
    Close                                    0x0001cf50   ARM Code      56  photo.o(.text)
    .text                                    0x0001cfac   Section        0  gpsandmileage.o(.text)
    JugeEvent                                0x0001cfac   ARM Code     184  gpsandmileage.o(.text)
    CountMileage                             0x0001d064   ARM Code      52  gpsandmileage.o(.text)
    ReadGpsData                              0x0001d098   ARM Code     132  gpsandmileage.o(.text)
    Task                                     0x0001d11c   ARM Code     268  gpsandmileage.o(.text)
    Init                                     0x0001d228   ARM Code     152  gpsandmileage.o(.text)
    Open                                     0x0001d2c0   ARM Code     216  gpsandmileage.o(.text)
    Close                                    0x0001d398   ARM Code      80  gpsandmileage.o(.text)
    Get                                      0x0001d3e8   ARM Code      80  gpsandmileage.o(.text)
    .text                                    0x0001d46c   Section        0  ftp.o(.text)
    ClearQ                                   0x0001d46c   ARM Code      88  ftp.o(.text)
    FtpClose                                 0x0001d4c4   ARM Code     156  ftp.o(.text)
    RevFtpData                               0x0001d560   ARM Code     124  ftp.o(.text)
    GetFileLength                            0x0001d5dc   ARM Code     204  ftp.o(.text)
    JudgeFtpAsk                              0x0001d6a8   ARM Code     144  ftp.o(.text)
    FTP_SendCommand                          0x0001d738   ARM Code     376  ftp.o(.text)
    GetDataLinkPra                           0x0001d8b0   ARM Code     544  ftp.o(.text)
    GetFileNameDir                           0x0001dad0   ARM Code     260  ftp.o(.text)
    FtpConfig                                0x0001dbd4   ARM Code     572  ftp.o(.text)
    LogOnFtpServer                           0x0001de10   ARM Code     244  ftp.o(.text)
    FTP_File_Init                            0x0001df04   ARM Code     844  ftp.o(.text)
    ClearSem                                 0x0001e250   ARM Code      84  ftp.o(.text)
    Task                                     0x0001e2a4   ARM Code     712  ftp.o(.text)
    Init                                     0x0001e56c   ARM Code     300  ftp.o(.text)
    FTP_CtrReceive                           0x0001e698   ARM Code      76  ftp.o(.text)
    FTP_DataReceive                          0x0001e6e4   ARM Code     668  ftp.o(.text)
    GetState                                 0x0001e980   ARM Code      48  ftp.o(.text)
    .text                                    0x0001e9bc   Section        0  tz_agreen.o(.text)
    Explain_Par                              0x0001e9bc   ARM Code    2508  tz_agreen.o(.text)
    Explain_WorkPar                          0x0001f388   ARM Code    3808  tz_agreen.o(.text)
    Explain                                  0x00020268   ARM Code     144  tz_agreen.o(.text)
    Explain_Answer                           0x000202f8   ARM Code      68  tz_agreen.o(.text)
    Explain_Track                            0x0002033c   ARM Code      88  tz_agreen.o(.text)
    Explain_SetPar                           0x00020394   ARM Code     192  tz_agreen.o(.text)
    Explain_AmendMenum                       0x00020454   ARM Code     240  tz_agreen.o(.text)
    Explain_LoaderTxt                        0x00020544   ARM Code      92  tz_agreen.o(.text)
    Explain_LoaderTxtMenum                   0x000205a0   ARM Code     280  tz_agreen.o(.text)
    Explain_SetPhone                         0x000206b8   ARM Code     276  tz_agreen.o(.text)
    Explain_CallAnswer                       0x000207cc   ARM Code      92  tz_agreen.o(.text)
    Explain_UpdateSoftWare                   0x00020828   ARM Code     432  tz_agreen.o(.text)
    Explain_LookPar                          0x000209d8   ARM Code     200  tz_agreen.o(.text)
    Explain_Contrl                           0x00020aa0   ARM Code     124  tz_agreen.o(.text)
    Explain_ConfineCall                      0x00020b1c   ARM Code     104  tz_agreen.o(.text)
    Explain_ConfigCentrSever                 0x00020b84   ARM Code     188  tz_agreen.o(.text)
    Explain_Activation                       0x00020c40   ARM Code      56  tz_agreen.o(.text)
    Explain_LookJpg                          0x00020c78   ARM Code     360  tz_agreen.o(.text)
    Explain_JpgIng                           0x00020de0   ARM Code      56  tz_agreen.o(.text)
    Explain_SetVidType                       0x00020e18   ARM Code     232  tz_agreen.o(.text)
    Explain_TabelList                        0x00020f00   ARM Code     700  tz_agreen.o(.text)
    Explain_WorkParTimer                     0x000211bc   ARM Code     144  tz_agreen.o(.text)
    Explain_WorkParSpace                     0x0002124c   ARM Code      88  tz_agreen.o(.text)
    Explain_LookLog                          0x000212a4   ARM Code     108  tz_agreen.o(.text)
    Explain_SetWaringTerm                    0x00021310   ARM Code     208  tz_agreen.o(.text)
    Explain_SetRound                         0x000213e0   ARM Code     520  tz_agreen.o(.text)
    Explain_DelRound                         0x000215e8   ARM Code     116  tz_agreen.o(.text)
    Explain_SetRectangle                     0x0002165c   ARM Code     540  tz_agreen.o(.text)
    Explain_DelRectangle                     0x00021878   ARM Code     116  tz_agreen.o(.text)
    Explain_SetPolygon                       0x000218ec   ARM Code     340  tz_agreen.o(.text)
    Explain_DelPolygon                       0x00021a40   ARM Code     116  tz_agreen.o(.text)
    Explain_SetRoadMap                       0x00021ab4   ARM Code     384  tz_agreen.o(.text)
    Explain_DelRoadMap                       0x00021c34   ARM Code     116  tz_agreen.o(.text)
    Explain_Reduce                           0x00021ca8   ARM Code     104  tz_agreen.o(.text)
    Explain_Driver                           0x00021d10   ARM Code     272  tz_agreen.o(.text)
    Explain_Navigation                       0x00021e20   ARM Code     384  tz_agreen.o(.text)
    Explain_HandTxt                          0x00021fa0   ARM Code      80  tz_agreen.o(.text)
    Explain_HandAttemper                     0x00021ff0   ARM Code     268  tz_agreen.o(.text)
    Explain_AmendForm                        0x000220fc   ARM Code     200  tz_agreen.o(.text)
    Explain_UpLoaderForm                     0x000221c4   ARM Code     172  tz_agreen.o(.text)
    Explain_UpLoaderFormSuc                  0x00022270   ARM Code     180  tz_agreen.o(.text)
    Explain_UpLoaderFormErro                 0x00022324   ARM Code      40  tz_agreen.o(.text)
    Explain_UpLoaderCan                      0x0002234c   ARM Code      40  tz_agreen.o(.text)
    .text                                    0x00022374   Section        0  tz_send.o(.text)
    Explain_Par                              0x00022374   ARM Code    6280  tz_send.o(.text)
    Explain_WorkPar                          0x00023bfc   ARM Code    3156  tz_send.o(.text)
    Explain_WorkPar1                         0x00024850   ARM Code    4280  tz_send.o(.text)
    Explain_WorkPar2                         0x00025908   ARM Code    6960  tz_send.o(.text)
    Expain_VidType2LessAddree                0x00027438   ARM Code     172  tz_send.o(.text)
    Gps2CenGps_Timer                         0x000274e4   ARM Code      76  tz_send.o(.text)
    Gps2CenGps_Height                        0x00027530   ARM Code     100  tz_send.o(.text)
    Gps2CenGps_Angle                         0x00027594   ARM Code      36  tz_send.o(.text)
    Gps2CenGps_Speed                         0x000275b8   ARM Code      16  tz_send.o(.text)
    Gps2CenGps_LongHem                       0x000275c8   ARM Code      48  tz_send.o(.text)
    Gps2CenGps_Latitude                      0x000275f8   ARM Code      48  tz_send.o(.text)
    Gps2CenGps                               0x00027628   ARM Code      92  tz_send.o(.text)
    Gps2ReduceGps_Height                     0x00027684   ARM Code     116  tz_send.o(.text)
    Explain_state                            0x000276f8   ARM Code     144  tz_send.o(.text)
    Explain_UpPar                            0x00027788   ARM Code     176  tz_send.o(.text)
    Explain                                  0x00027838   ARM Code     160  tz_send.o(.text)
    Explain_GetSeverComPar                   0x000278d8   ARM Code     180  tz_send.o(.text)
    Explain_Answer                           0x0002798c   ARM Code      68  tz_send.o(.text)
    Explain_Menum                            0x000279d0   ARM Code     112  tz_send.o(.text)
    Explain_TxtMenum                         0x00027a40   ARM Code     132  tz_send.o(.text)
    Explain_LookPar                          0x00027ac4   ARM Code     248  tz_send.o(.text)
    Explain_UpdateSoftWare                   0x00027bbc   ARM Code      24  tz_send.o(.text)
    Explain_Waring                           0x00027bd4   ARM Code     644  tz_send.o(.text)
    Explain_UploaderJpg1                     0x00027e58   ARM Code     200  tz_send.o(.text)
    Explain_UploaderJpg2                     0x00027f20   ARM Code     308  tz_send.o(.text)
    Explain_UploaderPar                      0x00028054   ARM Code     212  tz_send.o(.text)
    Explain_UploaderLog                      0x00028128   ARM Code       4  tz_send.o(.text)
    Explain_UpLoaderWarning                  0x0002812c   ARM Code     200  tz_send.o(.text)
    Explain_OutRoadMap                       0x000281f4   ARM Code     132  tz_send.o(.text)
    Explain_UpLoaderReduce                   0x00028278   ARM Code    1732  tz_send.o(.text)
    Explain_UpLoaderDriver                   0x0002893c   ARM Code     184  tz_send.o(.text)
    Explain_UpLoaderHandMess                 0x000289f4   ARM Code     360  tz_send.o(.text)
    Explain_NoSem                            0x00028b5c   ARM Code     312  tz_send.o(.text)
    Explain_UpLoaderFrom                     0x00028c94   ARM Code      36  tz_send.o(.text)
    Explain_OverFromErro                     0x00028cb8   ARM Code      56  tz_send.o(.text)
    Explain_PriceData                        0x00028cf0   ARM Code       4  tz_send.o(.text)
    .text                                    0x00028cf4   Section        0  tzv2.1.o(.text)
    Read1                                    0x00028cf4   ARM Code     532  tzv2.1.o(.text)
    Task                                     0x00028f08   ARM Code     188  tzv2.1.o(.text)
    Init                                     0x00028fc4   ARM Code     160  tzv2.1.o(.text)
    Open1                                    0x00029064   ARM Code     192  tzv2.1.o(.text)
    Open                                     0x00029124   ARM Code      80  tzv2.1.o(.text)
    Close                                    0x00029174   ARM Code      80  tzv2.1.o(.text)
    Read                                     0x000291c4   ARM Code      72  tzv2.1.o(.text)
    GetTimeAdd                               0x0002920c   ARM Code     244  tzv2.1.o(.text)
    WriteSig                                 0x00029300   ARM Code    1088  tzv2.1.o(.text)
    Write1                                   0x00029740   ARM Code     256  tzv2.1.o(.text)
    Write                                    0x00029840   ARM Code     112  tzv2.1.o(.text)
    GetPar2ID                                0x000298b0   ARM Code     152  tzv2.1.o(.text)
    .text                                    0x00029994   Section        0  _nandflash512.o(.text)
    Init                                     0x00029994   ARM Code     244  _nandflash512.o(.text)
    ReadData                                 0x00029a88   ARM Code     104  _nandflash512.o(.text)
    WriteData                                0x00029af0   ARM Code     108  _nandflash512.o(.text)
    ReadID                                   0x00029b5c   ARM Code     544  _nandflash512.o(.text)
    dzflash                                  0x00029d7c   ARM Code     608  _nandflash512.o(.text)
    FMrdPg517                                0x00029fdc   ARM Code     188  _nandflash512.o(.text)
    LookBad                                  0x0002a098   ARM Code     168  _nandflash512.o(.text)
    JugeByte                                 0x0002a140   ARM Code     264  _nandflash512.o(.text)
    JugeBuf                                  0x0002a248   ARM Code     268  _nandflash512.o(.text)
    Ease                                     0x0002a354   ARM Code     684  _nandflash512.o(.text)
    FMwrPg                                   0x0002a600   ARM Code     340  _nandflash512.o(.text)
    .text                                    0x0002a760   Section        0  _spiflash512.o(.text)
    Init                                     0x0002a760   ARM Code      28  _spiflash512.o(.text)
    CE_High                                  0x0002a77c   ARM Code      40  _spiflash512.o(.text)
    CE_Low                                   0x0002a7a4   ARM Code      40  _spiflash512.o(.text)
    ReadID                                   0x0002a7cc   ARM Code     120  _spiflash512.o(.text)
    JugeByte                                 0x0002a844   ARM Code     180  _spiflash512.o(.text)
    JugeBuf                                  0x0002a8f8   ARM Code     180  _spiflash512.o(.text)
    ReadStatus                               0x0002a9ac   ARM Code     116  _spiflash512.o(.text)
    ReadStatusOutTime                        0x0002aa20   ARM Code      76  _spiflash512.o(.text)
    WriteDisable                             0x0002aa6c   ARM Code     168  _spiflash512.o(.text)
    WriteClose                               0x0002ab14   ARM Code      84  _spiflash512.o(.text)
    WriteStatus                              0x0002ab68   ARM Code     172  _spiflash512.o(.text)
    WriteEnable                              0x0002ac14   ARM Code     168  _spiflash512.o(.text)
    WriteOpen                                0x0002acbc   ARM Code     176  _spiflash512.o(.text)
    Ease                                     0x0002ad6c   ARM Code     156  _spiflash512.o(.text)
    Write                                    0x0002ae08   ARM Code     192  _spiflash512.o(.text)
    Read                                     0x0002aec8   ARM Code     176  _spiflash512.o(.text)
    .text                                    0x0002af88   Section        0  _flash.o(.text)
    CreatBad                                 0x0002af88   ARM Code     220  _flash.o(.text)
    FormatFlash                              0x0002b064   ARM Code     512  _flash.o(.text)
    CompareBuf                               0x0002b264   ARM Code      68  _flash.o(.text)
    Open                                     0x0002b2a8   ARM Code     240  _flash.o(.text)
    JugeFlash                                0x0002b398   ARM Code     188  _flash.o(.text)
    WriteFlash                               0x0002b454   ARM Code     248  _flash.o(.text)
    ReadFlash                                0x0002b54c   ARM Code     192  _flash.o(.text)
    EaseFlash                                0x0002b60c   ARM Code      60  _flash.o(.text)
    .text                                    0x0002b64c   Section        0  _rwflashlgc.o(.text)
    Open                                     0x0002b64c   ARM Code     120  _rwflashlgc.o(.text)
    Lgc2Phy                                  0x0002b6c4   ARM Code     212  _rwflashlgc.o(.text)
    Read                                     0x0002b798   ARM Code     356  _rwflashlgc.o(.text)
    MoveByte                                 0x0002b8fc   ARM Code      44  _rwflashlgc.o(.text)
    CopyBlock                                0x0002b928   ARM Code     584  _rwflashlgc.o(.text)
    WriteBlock                               0x0002bb70   ARM Code     540  _rwflashlgc.o(.text)
    Write                                    0x0002bd8c   ARM Code     268  _rwflashlgc.o(.text)
    Ease                                     0x0002be98   ARM Code     212  _rwflashlgc.o(.text)
    .text                                    0x0002bf88   Section        0  _filedata.o(.text)
    BackFacFile                              0x0002bf88   ARM Code     204  _filedata.o(.text)
    .text                                    0x0002c2d4   Section        0  takedata.o(.text)
    ReadFlow                                 0x0002c2d4   ARM Code     236  takedata.o(.text)
    SendReduceData                           0x0002c3c0   ARM Code     280  takedata.o(.text)
    ReadDataFlow                             0x0002c4d8   ARM Code      92  takedata.o(.text)
    ReadParTable                             0x0002c534   ARM Code     100  takedata.o(.text)
    JugeReduceLen                            0x0002c598   ARM Code     168  takedata.o(.text)
    JugeReduceData                           0x0002c640   ARM Code     220  takedata.o(.text)
    WriteFlow                                0x0002c71c   ARM Code     672  takedata.o(.text)
    GetFlowWaringType                        0x0002c9bc   ARM Code     100  takedata.o(.text)
    ReadSpace                                0x0002ca20   ARM Code      92  takedata.o(.text)
    AddSpace                                 0x0002ca7c   ARM Code     332  takedata.o(.text)
    GetPhonesSize                            0x0002cbc8   ARM Code     244  takedata.o(.text)
    GetPhoneCut                              0x0002ccbc   ARM Code     380  takedata.o(.text)
    WritePhone                               0x0002ce38   ARM Code     204  takedata.o(.text)
    ClearState                               0x0002cf04   ARM Code     168  takedata.o(.text)
    GetState                                 0x0002cfac   ARM Code     148  takedata.o(.text)
    SetState                                 0x0002d040   ARM Code     216  takedata.o(.text)
    GetAreaData                              0x0002d118   ARM Code     360  takedata.o(.text)
    JugeID                                   0x0002d280   ARM Code      72  takedata.o(.text)
    AccessAear                               0x0002d2c8   ARM Code     484  takedata.o(.text)
    DelAear                                  0x0002d4ac   ARM Code     276  takedata.o(.text)
    .text                                    0x0002d5c4   Section        0  appsendagreeon.o(.text)
    GetPar                                   0x0002d5c4   ARM Code    5292  appsendagreeon.o(.text)
    Send                                     0x0002ea70   ARM Code     168  appsendagreeon.o(.text)
    LoadJpg                                  0x0002eb18   ARM Code     268  appsendagreeon.o(.text)
    SendData                                 0x0002ec24   ARM Code     304  appsendagreeon.o(.text)
    WriteFlow1                               0x0002ed54   ARM Code     200  appsendagreeon.o(.text)
    WriteFlow2                               0x0002ee1c   ARM Code     228  appsendagreeon.o(.text)
    UpLoaderDriverExplain                    0x0002ef00   ARM Code     336  appsendagreeon.o(.text)
    NoSemDriver                              0x0002f050   ARM Code     780  appsendagreeon.o(.text)
    LoaderJpgData                            0x0002f35c   ARM Code     464  appsendagreeon.o(.text)
    NoSemJpgData                             0x0002f52c   ARM Code     680  appsendagreeon.o(.text)
    UpLoaderReduce                           0x0002f7d4   ARM Code     184  appsendagreeon.o(.text)
    NoSemReduce                              0x0002f88c   ARM Code     844  appsendagreeon.o(.text)
    WorkParDataExpalin                       0x0002fbd8   ARM Code     148  appsendagreeon.o(.text)
    NoSemWorkPar                             0x0002fc6c   ARM Code     832  appsendagreeon.o(.text)
    TrackDataExplain                         0x0002ffac   ARM Code      92  appsendagreeon.o(.text)
    NoSemTrack                               0x00030008   ARM Code     832  appsendagreeon.o(.text)
    NoSemSend1                               0x00030348   ARM Code     132  appsendagreeon.o(.text)
    Task                                     0x000303cc   ARM Code     156  appsendagreeon.o(.text)
    Init                                     0x00030468   ARM Code     156  appsendagreeon.o(.text)
    SendLogin                                0x00030504   ARM Code      32  appsendagreeon.o(.text)
    NoSemSend                                0x00030524   ARM Code     164  appsendagreeon.o(.text)
    WriteFlow                                0x000305c8   ARM Code     216  appsendagreeon.o(.text)
    WriteCommand                             0x000306a0   ARM Code     208  appsendagreeon.o(.text)
    Answer                                   0x00030770   ARM Code     168  appsendagreeon.o(.text)
    LogInfor                                 0x00030818   ARM Code      56  appsendagreeon.o(.text)
    Orientation                              0x00030850   ARM Code     116  appsendagreeon.o(.text)
    Menum                                    0x000308c4   ARM Code      56  appsendagreeon.o(.text)
    TxtMenum                                 0x000308fc   ARM Code      56  appsendagreeon.o(.text)
    LookPar                                  0x00030934   ARM Code     156  appsendagreeon.o(.text)
    UpdateSoftWare                           0x000309d0   ARM Code     120  appsendagreeon.o(.text)
    Waring                                   0x00030a48   ARM Code     464  appsendagreeon.o(.text)
    UploaderJpg1                             0x00030c18   ARM Code     396  appsendagreeon.o(.text)
    UploaderJpg2Sig                          0x00030da4   ARM Code     420  appsendagreeon.o(.text)
    UploaderJpg2                             0x00030f48   ARM Code     448  appsendagreeon.o(.text)
    UploaderPar                              0x00031108   ARM Code     148  appsendagreeon.o(.text)
    UpLoaderJpHistory                        0x0003119c   ARM Code     196  appsendagreeon.o(.text)
    UpLoaderLog_Par                          0x00031260   ARM Code     712  appsendagreeon.o(.text)
    UploaderLog                              0x00031528   ARM Code      64  appsendagreeon.o(.text)
    UpLoaderWarning                          0x00031568   ARM Code     104  appsendagreeon.o(.text)
    OutRoadMap                               0x000315d0   ARM Code     184  appsendagreeon.o(.text)
    UpLoaderReduce1                          0x00031688   ARM Code      96  appsendagreeon.o(.text)
    UpLoaderDriver                           0x000316e8   ARM Code     348  appsendagreeon.o(.text)
    UpLoaderHandMess                         0x00031844   ARM Code     172  appsendagreeon.o(.text)
    .text                                    0x00031908   Section        0  appgprs.o(.text)
    SetPar                                   0x00031908   ARM Code    5920  appgprs.o(.text)
    AgreeData                                0x00033028   ARM Code     144  appgprs.o(.text)
    Orientation                              0x000330b8   ARM Code      80  appgprs.o(.text)
    Track                                    0x00033108   ARM Code     148  appgprs.o(.text)
    SetPar1                                  0x0003319c   ARM Code     328  appgprs.o(.text)
    UnlockWaring                             0x000332e4   ARM Code     160  appgprs.o(.text)
    AmendMenum                               0x00033384   ARM Code     316  appgprs.o(.text)
    LoaderTxt                                0x000334c0   ARM Code     276  appgprs.o(.text)
    LoaderTxtMenum                           0x000335d4   ARM Code      52  appgprs.o(.text)
    SetPhone                                 0x00033608   ARM Code     660  appgprs.o(.text)
    CallAnswer                               0x0003389c   ARM Code     284  appgprs.o(.text)
    SoftWareState                            0x000339b8   ARM Code     132  appgprs.o(.text)
    DownLoaderOver                           0x00033a3c   ARM Code     172  appgprs.o(.text)
    UpdateSoftWare                           0x00033ae8   ARM Code     244  appgprs.o(.text)
    LookPar                                  0x00033bdc   ARM Code      48  appgprs.o(.text)
    Contrl                                   0x00033c0c   ARM Code     436  appgprs.o(.text)
    ConfineCall                              0x00033dc0   ARM Code     148  appgprs.o(.text)
    ConfigCentrSever                         0x00033e54   ARM Code      48  appgprs.o(.text)
    Activation                               0x00033e84   ARM Code       4  appgprs.o(.text)
    LookJpg                                  0x00033e88   ARM Code      48  appgprs.o(.text)
    JpgIng                                   0x00033eb8   ARM Code       4  appgprs.o(.text)
    SetVidType                               0x00033ebc   ARM Code     132  appgprs.o(.text)
    TabelList                                0x00033f40   ARM Code       4  appgprs.o(.text)
    GetLessAdree                             0x00033f44   ARM Code     456  appgprs.o(.text)
    LookWorkPar                              0x0003410c   ARM Code     264  appgprs.o(.text)
    WorkParTimer                             0x00034214   ARM Code      80  appgprs.o(.text)
    WorkParSpace                             0x00034264   ARM Code     148  appgprs.o(.text)
    LookLog                                  0x000342f8   ARM Code      48  appgprs.o(.text)
    SetWaringTerm                            0x00034328   ARM Code      80  appgprs.o(.text)
    LookWaringTerm                           0x00034378   ARM Code      48  appgprs.o(.text)
    SetRound                                 0x000343a8   ARM Code     160  appgprs.o(.text)
    DelRound                                 0x00034448   ARM Code     112  appgprs.o(.text)
    SetRectangle                             0x000344b8   ARM Code     156  appgprs.o(.text)
    DelRectangle                             0x00034554   ARM Code     112  appgprs.o(.text)
    SetPolygon                               0x000345c4   ARM Code      48  appgprs.o(.text)
    DelPolygon                               0x000345f4   ARM Code     112  appgprs.o(.text)
    SetRoadMap                               0x00034664   ARM Code      48  appgprs.o(.text)
    DelRoadMap                               0x00034694   ARM Code      48  appgprs.o(.text)
    Reduce                                   0x000346c4   ARM Code     140  appgprs.o(.text)
    GetDriver                                0x00034750   ARM Code     296  appgprs.o(.text)
    Driver                                   0x00034878   ARM Code     532  appgprs.o(.text)
    Navigation                               0x00034a8c   ARM Code      48  appgprs.o(.text)
    HandTxt                                  0x00034abc   ARM Code     424  appgprs.o(.text)
    HandAttemper                             0x00034c64   ARM Code     596  appgprs.o(.text)
    AmendForm                                0x00034eb8   ARM Code      48  appgprs.o(.text)
    UpLoaderForm                             0x00034ee8   ARM Code      48  appgprs.o(.text)
    UpLoaderFormSuc                          0x00034f18   ARM Code      48  appgprs.o(.text)
    UpLoaderFormErro                         0x00034f48   ARM Code      48  appgprs.o(.text)
    UpLoaderCan                              0x00034f78   ARM Code      48  appgprs.o(.text)
    .text                                    0x00034fb4   Section        0  opensensor.o(.text)
    Init                                     0x00034fb4   ARM Code    1100  opensensor.o(.text)
    .text                                    0x00035448   Section        0  accoper.o(.text)
    GetTimeAdd                               0x00035448   ARM Code     488  accoper.o(.text)
    GetData                                  0x00035630   ARM Code     628  accoper.o(.text)
    JugeTimerPar                             0x000358a4   ARM Code     196  accoper.o(.text)
    AccClose                                 0x00035968   ARM Code     588  accoper.o(.text)
    AccTimer                                 0x00035bb4   ARM Code     120  accoper.o(.text)
    AccOpen                                  0x00035c2c   ARM Code     236  accoper.o(.text)
    AccStateChange                           0x00035d18   ARM Code     324  accoper.o(.text)
    AccOper                                  0x00035e5c   ARM Code     232  accoper.o(.text)
    OpenGps                                  0x00035f44   ARM Code      28  accoper.o(.text)
    OpenGprs                                 0x00035f60   ARM Code      28  accoper.o(.text)
    CloseGps                                 0x00035f7c   ARM Code      28  accoper.o(.text)
    CloseGprs                                0x00035f98   ARM Code      28  accoper.o(.text)
    .text                                    0x00035ffc   Section        0  appagreedatasensor.o(.text)
    Init                                     0x00035ffc   ARM Code     216  appagreedatasensor.o(.text)
    HelpWaring                               0x000360d4   ARM Code     328  appagreedatasensor.o(.text)
    JugeVo                                   0x0003621c   ARM Code     536  appagreedatasensor.o(.text)
    GetTimeAdd                               0x00036434   ARM Code     244  appagreedatasensor.o(.text)
    VoCheck                                  0x00036528   ARM Code      96  appagreedatasensor.o(.text)
    Jugeuint16                               0x00036588   ARM Code      84  appagreedatasensor.o(.text)
    Jugeint32                                0x000365dc   ARM Code      84  appagreedatasensor.o(.text)
    Jugeuint8                                0x00036630   ARM Code      84  appagreedatasensor.o(.text)
    GetData                                  0x00036684   ARM Code     252  appagreedatasensor.o(.text)
    .text                                    0x000367e0   Section        0  space.o(.text)
    InitSpace                                0x000367e0   ARM Code     356  space.o(.text)
    JugeSpeed                                0x00036944   ARM Code     608  space.o(.text)
    GetTimeAdd                               0x00036ba4   ARM Code     244  space.o(.text)
    GetGps                                   0x00036c98   ARM Code     520  space.o(.text)
    Space_Track                              0x00036ea0   ARM Code     196  space.o(.text)
    Space_WorkParSpace                       0x00036f64   ARM Code     196  space.o(.text)
    .text                                    0x0003707c   Section        0  jugeoper.o(.text)
    Warning                                  0x0003707c   ARM Code     388  jugeoper.o(.text)
    JugeAppair                               0x00037200   ARM Code     304  jugeoper.o(.text)
    Juge                                     0x00037330   ARM Code     176  jugeoper.o(.text)
    .text                                    0x00037400   Section        0  warningupate.o(.text)
    JugeGpsState                             0x00037400   ARM Code     176  warningupate.o(.text)
    LoadWaringJugeWorkParState               0x000374b0   ARM Code     148  warningupate.o(.text)
    LoadWaringJugeWorkPar                    0x00037544   ARM Code      80  warningupate.o(.text)
    SendWarning                              0x00037594   ARM Code     240  warningupate.o(.text)
    JugeWorkPar                              0x00037684   ARM Code     300  warningupate.o(.text)
    Task                                     0x000377b0   ARM Code      28  warningupate.o(.text)
    Init                                     0x000377cc   ARM Code      40  warningupate.o(.text)
    .text                                    0x00037828   Section        0  displayoper.o(.text)
    Init                                     0x00037828   ARM Code      60  displayoper.o(.text)
    GetData                                  0x00037864   ARM Code     156  displayoper.o(.text)
    Answer                                   0x00037900   ARM Code     116  displayoper.o(.text)
    Order_Phone                              0x00037974   ARM Code     440  displayoper.o(.text)
    GetCentrIP                               0x00037b2c   ARM Code     144  displayoper.o(.text)
    SeePar                                   0x00037bbc   ARM Code     844  displayoper.o(.text)
    SetPar                                   0x00037f08   ARM Code     692  displayoper.o(.text)
    Log                                      0x000381bc   ARM Code     576  displayoper.o(.text)
    Voic                                     0x000383fc   ARM Code      80  displayoper.o(.text)
    LCDRef                                   0x0003844c   ARM Code     632  displayoper.o(.text)
    .text                                    0x000386c4   Section        0  messageandphone.o(.text)
    Init                                     0x000386c4   ARM Code     216  messageandphone.o(.text)
    AgreePhone                               0x0003879c   ARM Code     216  messageandphone.o(.text)
    ptFunHupWork                             0x00038874   ARM Code      28  messageandphone.o(.text)
    NewMessage                               0x00038890   ARM Code     588  messageandphone.o(.text)
    JugePhone                                0x00038adc   ARM Code     208  messageandphone.o(.text)
    JugeDriver                               0x00038bac   ARM Code    1540  messageandphone.o(.text)
    ConsPhone                                0x000391b0   ARM Code     452  messageandphone.o(.text)
    BasicPhone                               0x00039374   ARM Code     244  messageandphone.o(.text)
    ptFunNewPhone                            0x00039468   ARM Code     404  messageandphone.o(.text)
    ptFunMostPhone                           0x000395fc   ARM Code     116  messageandphone.o(.text)
    CloseCall                                0x00039670   ARM Code      56  messageandphone.o(.text)
    .text                                    0x000396ac   Section        0  logonserver.o(.text)
    OpenSms                                  0x000396ac   ARM Code     296  logonserver.o(.text)
    CreartAgreeOn                            0x000397d4   ARM Code     272  logonserver.o(.text)
    CreatDev                                 0x000398e4   ARM Code     168  logonserver.o(.text)
    OpenSev                                  0x0003998c   ARM Code     320  logonserver.o(.text)
    GetTimeAdd                               0x00039acc   ARM Code     244  logonserver.o(.text)
    GetSevParSigle                           0x00039bc0   ARM Code     568  logonserver.o(.text)
    GetSevPar                                0x00039df8   ARM Code     212  logonserver.o(.text)
    LoginUDP                                 0x00039ecc   ARM Code     224  logonserver.o(.text)
    Dev_Login                                0x00039fac   ARM Code     112  logonserver.o(.text)
    Dev_APN                                  0x0003a01c   ARM Code     164  logonserver.o(.text)
    Login                                    0x0003a0c0   ARM Code     212  logonserver.o(.text)
    CloseSms                                 0x0003a194   ARM Code      88  logonserver.o(.text)
    Task                                     0x0003a1ec   ARM Code     652  logonserver.o(.text)
    Init                                     0x0003a478   ARM Code     204  logonserver.o(.text)
    .text                                    0x0003a544   Section        0  openandclose.o(.text)
    Init                                     0x0003a544   ARM Code     212  openandclose.o(.text)
    OpenGps                                  0x0003a618   ARM Code     116  openandclose.o(.text)
    CloseGps                                 0x0003a68c   ARM Code     140  openandclose.o(.text)
    LogSucOper                               0x0003a718   ARM Code     160  openandclose.o(.text)
    OpenGprsNo                               0x0003a7b8   ARM Code      64  openandclose.o(.text)
    ClearSem                                 0x0003a7f8   ARM Code      88  openandclose.o(.text)
    OpenGprs                                 0x0003a850   ARM Code     192  openandclose.o(.text)
    CloseGprs                                0x0003a910   ARM Code     128  openandclose.o(.text)
    ClearTimer                               0x0003a990   ARM Code      20  openandclose.o(.text)
    OpenUart                                 0x0003a9a4   ARM Code     108  openandclose.o(.text)
    ChargeLogin                              0x0003aa10   ARM Code      48  openandclose.o(.text)
    ChargeLoadDev                            0x0003aa40   ARM Code      56  openandclose.o(.text)
    .text                                    0x0003aadc   Section        0  updatesoftware.o(.text)
    Task                                     0x0003aadc   ARM Code     876  updatesoftware.o(.text)
    Init                                     0x0003ae48   ARM Code     104  updatesoftware.o(.text)
    .text                                    0x0003af00   Section        0  _init.o(.text)
    MODEM_Dly100ms                           0x0003af70   ARM Code     128  _init.o(.text)
    CheckLed                                 0x0003aff0   ARM Code     452  _init.o(.text)
    Init                                     0x0003b1b4   ARM Code     440  _init.o(.text)
    .text                                    0x0003b40c   Section        0  rand.o(.text)
    .text                                    0x0003b454   Section        0  strlen.o(.text)
    .text                                    0x0003b4a0   Section        0  memchr.o(.text)
    .text                                    0x0003b4b8   Section      100  rt_memcpy_w.o(.text)
    .text                                    0x0003b51c   Section       16  aeabi_memset.o(.text)
    .text                                    0x0003b52c   Section       84  rt_memclr_w.o(.text)
    .text                                    0x0003b580   Section      384  aeabi_sdiv.o(.text)
    __arm_div8                               0x0003b5ac   ARM Code       0  aeabi_sdiv.o(.text)
    __arm_div5                               0x0003b5d0   ARM Code       0  aeabi_sdiv.o(.text)
    __arm_div2                               0x0003b5f4   ARM Code       0  aeabi_sdiv.o(.text)
    __arm_div_large                          0x0003b630   ARM Code       0  aeabi_sdiv.o(.text)
    .text                                    0x0003b700   Section        0  heapauxi.o(.text)
    .text                                    0x0003b710   Section        0  _rserrno.o(.text)
    .text                                    0x0003b72c   Section       64  rt_memclr.o(.text)
    .text                                    0x0003b770   Section       12  rt_errno_addr_intlibspace.o(.text)
    .text                                    0x0003b77c   Section       12  libspace.o(.text)
    .text                                    0x0003b788   Section       96  sys_stackheap_outer.o(.text)
    .text                                    0x0003b7e8   Section        0  exit.o(.text)
    .text                                    0x0003b804   Section        0  sys_exit.o(.text)
    .text                                    0x0003b810   Section        4  use_no_semi.o(.text)
    .text                                    0x0003b814   Section        0  indicate_semi.o(.text)
    .text_udiv                               0x0003b814   Section       36  aeabi_sdiv.o(.text_udiv)
    IRQ                                      0x0003b838   Section     1264  irq.o(IRQ)
    i.__ARM_fpclassify                       0x0003bd28   Section        0  fpclassify.o(i.__ARM_fpclassify)
    i.__ieee754_rem_pio2                     0x0003bd58   Section        0  rred.o(i.__ieee754_rem_pio2)
    i.__kernel_cos                           0x0003c26c   Section        0  cos_i.o(i.__kernel_cos)
    i.__kernel_poly                          0x0003c408   Section        0  poly.o(i.__kernel_poly)
    i.__kernel_sin                           0x0003c508   Section        0  sin_i.o(i.__kernel_sin)
    i.__mathlib_dbl_infnan                   0x0003c684   Section        0  dunder.o(i.__mathlib_dbl_infnan)
    i.__mathlib_dbl_invalid                  0x0003c68c   Section        0  dunder.o(i.__mathlib_dbl_invalid)
    i.__mathlib_dbl_underflow                0x0003c6a0   Section        0  dunder.o(i.__mathlib_dbl_underflow)
    i.cos                                    0x0003c6b4   Section        0  cos.o(i.cos)
    i.sin                                    0x0003c7a4   Section        0  sin.o(i.sin)
    i.sqrt                                   0x0003c89c   Section        0  sqrt.o(i.sqrt)
    subr                                     0x0003c90c   Section      272  os_cpu_a.o(subr)
    x$fpl$d2f                                0x0003ca1c   Section      108  d2f.o(x$fpl$d2f)
    x$fpl$dadd                               0x0003ca88   Section      340  daddsub_noclz.o(x$fpl$dadd)
    _dadd1                                   0x0003ca98   ARM Code       0  daddsub_noclz.o(x$fpl$dadd)
    x$fpl$dcheck1                            0x0003cbdc   Section       16  dcheck1.o(x$fpl$dcheck1)
    x$fpl$ddiv                               0x0003cbec   Section      736  ddiv.o(x$fpl$ddiv)
    ddiv_entry                               0x0003cbf4   ARM Code       0  ddiv.o(x$fpl$ddiv)
    x$fpl$dfix                               0x0003cecc   Section      112  dfix.o(x$fpl$dfix)
    x$fpl$dflt                               0x0003cf3c   Section       88  dflt_noclz.o(x$fpl$dflt)
    x$fpl$dfltu                              0x0003cf94   Section       12  dflt_noclz.o(x$fpl$dfltu)
    x$fpl$dmul                               0x0003cfa0   Section      384  dmul.o(x$fpl$dmul)
    x$fpl$dnaninf                            0x0003d120   Section      192  dnaninf.o(x$fpl$dnaninf)
    x$fpl$dretinf                            0x0003d1e0   Section       16  dretinf.o(x$fpl$dretinf)
    x$fpl$drsb                               0x0003d1f0   Section       24  daddsub_noclz.o(x$fpl$drsb)
    x$fpl$dsqrt                              0x0003d208   Section      520  dsqrt_noumaal.o(x$fpl$dsqrt)
    x$fpl$dsub                               0x0003d410   Section      580  daddsub_noclz.o(x$fpl$dsub)
    _dsub1                                   0x0003d420   ARM Code       0  daddsub_noclz.o(x$fpl$dsub)
    x$fpl$f2d                                0x0003d654   Section      100  f2d.o(x$fpl$f2d)
    x$fpl$fadd                               0x0003d6b8   Section      196  faddsub_noclz.o(x$fpl$fadd)
    _fadd1                                   0x0003d6c4   ARM Code       0  faddsub_noclz.o(x$fpl$fadd)
    x$fpl$fcmpinf                            0x0003d77c   Section       28  fcmpi.o(x$fpl$fcmpinf)
    x$fpl$ffixu                              0x0003d798   Section       84  ffixu.o(x$fpl$ffixu)
    x$fpl$fflt                               0x0003d7ec   Section       92  fflt_noclz.o(x$fpl$fflt)
    x$fpl$ffltu                              0x0003d848   Section        8  fflt_noclz.o(x$fpl$ffltu)
    x$fpl$fleqf                              0x0003d850   Section      132  fleqf.o(x$fpl$fleqf)
    x$fpl$fmul                               0x0003d8d4   Section      256  fmul.o(x$fpl$fmul)
    x$fpl$fnaninf                            0x0003d9d4   Section      168  fnaninf.o(x$fpl$fnaninf)
    x$fpl$fretinf                            0x0003da7c   Section       16  fretinf.o(x$fpl$fretinf)
    x$fpl$frleqf                             0x0003da8c   Section      124  frleqf.o(x$fpl$frleqf)
    x$fpl$fsub                               0x0003db08   Section      304  faddsub_noclz.o(x$fpl$fsub)
    _fsub1                                   0x0003db14   ARM Code       0  faddsub_noclz.o(x$fpl$fsub)
    x$fpl$retnan                             0x0003dc38   Section      116  retnan.o(x$fpl$retnan)
    x$fpl$scalbn                             0x0003dcac   Section      104  scalbn.o(x$fpl$scalbn)
    x$fpl$trapveneer                         0x0003dd14   Section       60  trapv.o(x$fpl$trapveneer)
    .constdata                               0x0003dd50   Section      264  os_core.o(.constdata)
    x$fpl$usenofp                            0x0003dd50   Section        0  usenofp.o(x$fpl$usenofp)
    .constdata                               0x0003de58   Section      300  _arithmetic.o(.constdata)
    nand_ecc_precalc_table                   0x0003de84   Data         256  _arithmetic.o(.constdata)
    .constdata                               0x0003df84   Section      242  _ascnumber.o(.constdata)
    .constdata                               0x0003e078   Section       16  _date.o(.constdata)
    .constdata                               0x0003e088   Section       12  _rtc.o(.constdata)
    .constdata                               0x0003e094   Section       36  _spi.o(.constdata)
    .constdata                               0x0003e0b8   Section       20  _uart.o(.constdata)
    .constdata                               0x0003e0cc   Section       52  adchard.o(.constdata)
    .constdata                               0x0003e100   Section      276  ds18b20.o(.constdata)
    crc8_table                               0x0003e100   Data         256  ds18b20.o(.constdata)
    .constdata                               0x0003e214   Section     1695  huaiweigprs.o(.constdata)
    .constdata                               0x0003e8b4   Section      208  gprshard.o(.constdata)
    .constdata                               0x0003e984   Section      120  less.o(.constdata)
    CN_st_Fun_Sensor2Hard                    0x0003e984   Data          20  less.o(.constdata)
    CN_st_Sensor_Par2Type                    0x0003e998   Data          40  less.o(.constdata)
    .constdata                               0x0003e9fc   Section       36  acc.o(.constdata)
    CN_st_Fun_Sensor2Hard                    0x0003e9fc   Data          20  acc.o(.constdata)
    CN_st_Sensor_Par2Type                    0x0003ea10   Data           4  acc.o(.constdata)
    .constdata                               0x0003ea20   Section       48  oil.o(.constdata)
    CN_st_Fun_Sensor2Hard                    0x0003ea20   Data          20  oil.o(.constdata)
    CN_st_Sensor_Par2Type                    0x0003ea34   Data           4  oil.o(.constdata)
    .constdata                               0x0003ea50   Section       56  sensor.o(.constdata)
    .constdata                               0x0003ea88   Section      112  gps.o(.constdata)
    CN_Ba_st_Sensor_State                    0x0003ea88   Data           3  gps.o(.constdata)
    CN_st_Fun_Sensor2Hard                    0x0003eacc   Data          20  gps.o(.constdata)
    CN_st_Sensor_Par2Type                    0x0003eae0   Data           4  gps.o(.constdata)
    .constdata                               0x0003eaf8   Section      436  display.o(.constdata)
    CN_Ba_st_Display_Par2Type                0x0003ebe8   Data          80  display.o(.constdata)
    CN_Ba_st_Host_SendData                   0x0003ec38   Data          72  display.o(.constdata)
    CN_st_Fun_Sensor2Hard                    0x0003ec80   Data          20  display.o(.constdata)
    CN_st_Sensor_Par2Type                    0x0003ec94   Data           4  display.o(.constdata)
    .constdata                               0x0003ecac   Section       43  temperture.o(.constdata)
    CN_st_Sensor_Par2Type                    0x0003ecac   Data           8  temperture.o(.constdata)
    CN_st_Fun_Sensor2Hard                    0x0003ecb4   Data          20  temperture.o(.constdata)
    .constdata                               0x0003ecd8   Section       36  mileage.o(.constdata)
    CN_st_Sensor_Par2Type                    0x0003ecd8   Data           4  mileage.o(.constdata)
    CN_st_Fun_Sensor2Hard                    0x0003ecdc   Data          20  mileage.o(.constdata)
    .constdata                               0x0003ecfc   Section       40  gprstzxy.o(.constdata)
    CN_st_Fun_Sensor2Hard                    0x0003ecfc   Data          20  gprstzxy.o(.constdata)
    CN_st_Sensor_Par2Type                    0x0003ed10   Data           8  gprstzxy.o(.constdata)
    .constdata                               0x0003ed24   Section       48  uarttzxy.o(.constdata)
    CN_st_Fun_Sensor2Hard                    0x0003ed24   Data          20  uarttzxy.o(.constdata)
    CN_st_Sensor_Par2Type                    0x0003ed38   Data           8  uarttzxy.o(.constdata)
    .constdata                               0x0003ed54   Section       40  arealrm.o(.constdata)
    CN_st_Sensor_Par2Type                    0x0003ed54   Data           8  arealrm.o(.constdata)
    CN_st_Fun_Sensor2Hard                    0x0003ed5c   Data          20  arealrm.o(.constdata)
    .constdata                               0x0003ed7c   Section       36  help.o(.constdata)
    CN_st_Fun_Sensor2Hard                    0x0003ed7c   Data          20  help.o(.constdata)
    CN_st_Sensor_Par2Type                    0x0003ed90   Data           4  help.o(.constdata)
    .constdata                               0x0003eda0   Section       36  onoroff.o(.constdata)
    CN_st_Fun_Sensor2Hard                    0x0003eda0   Data          20  onoroff.o(.constdata)
    CN_st_Sensor_Par2Type                    0x0003edb4   Data           4  onoroff.o(.constdata)
    .constdata                               0x0003edc4   Section       48  adc1.o(.constdata)
    CN_st_Fun_Sensor2Hard                    0x0003edc4   Data          20  adc1.o(.constdata)
    CN_st_Sensor_Par2Type                    0x0003edd8   Data           4  adc1.o(.constdata)
    .constdata                               0x0003edf4   Section       36  smstzxy.o(.constdata)
    CN_st_Fun_Sensor2Hard                    0x0003edf4   Data          20  smstzxy.o(.constdata)
    CN_st_Sensor_Par2Type                    0x0003ee08   Data           4  smstzxy.o(.constdata)
    .constdata                               0x0003ee18   Section       60  _rwfile.o(.constdata)
    .constdata                               0x0003ee54   Section       40  _downfile.o(.constdata)
    .constdata                               0x0003ee7c   Section      100  sensorcontr.o(.constdata)
    CN_Ba_st_Affair_Sensor                   0x0003ee7c   Data           8  sensorcontr.o(.constdata)
    CN_Ba_OpenTermPar                        0x0003ee84   Data          78  sensorcontr.o(.constdata)
    .constdata                               0x0003eee0   Section      120  gprs.o(.constdata)
    .constdata                               0x0003ef58   Section       36  timer.o(.constdata)
    .constdata                               0x0003ef7c   Section       20  photo.o(.constdata)
    .constdata                               0x0003ef90   Section       16  gpsandmileage.o(.constdata)
    .constdata                               0x0003efa0   Section       60  ftp.o(.constdata)
    .constdata                               0x0003efdc   Section      356  tz_agreen.o(.constdata)
    CN_Ba_st_Tz_Agreen_FunOper               0x0003efdc   Data         352  tz_agreen.o(.constdata)
    .constdata                               0x0003f140   Section      196  tz_send.o(.constdata)
    CN_Ba_st_Tz_Send_FunOper                 0x0003f140   Data         192  tz_send.o(.constdata)
    .constdata                               0x0003f204   Section      564  tzv2.1.o(.constdata)
    CN_Ba_Order2Answer                       0x0003f3bc   Data         100  tzv2.1.o(.constdata)
    .constdata                               0x0003f438   Section       32  _nandflash512.o(.constdata)
    .constdata                               0x0003f458   Section       32  _spiflash512.o(.constdata)
    .constdata                               0x0003f478   Section      172  _flash.o(.constdata)
    .constdata                               0x0003f524   Section       16  _rwflashlgc.o(.constdata)
    .constdata                               0x0003f534   Section     2012  _filedata.o(.constdata)
    CN_Ba_st_File_Basic                      0x0003f534   Data          35  _filedata.o(.constdata)
    CN_Ba_st_File_GreenPar                   0x0003f558   Data         136  _filedata.o(.constdata)
    CN_Ba_st_File_WorkPar                    0x0003f5e0   Data         288  _filedata.o(.constdata)
    CN_Ba_st_Parameter_Table                 0x0003f700   Data         104  _filedata.o(.constdata)
    CN_Ba_st_Gprs_ComPar                     0x0003f768   Data         368  _filedata.o(.constdata)
    CN_Ba_st_Message_ComPar                  0x0003f8d8   Data         273  _filedata.o(.constdata)
    CN_Ba_st_Phone_Basic                     0x0003f9e9   Data          30  _filedata.o(.constdata)
    CN_Ba_st_Phone_Root                      0x0003fa07   Data          26  _filedata.o(.constdata)
    CN_Ba_st_AccTimer                        0x0003fa24   Data           4  _filedata.o(.constdata)
    CN_Ba_st_File_Menum                      0x0003fa28   Data          41  _filedata.o(.constdata)
    .constdata                               0x0003fd10   Section       64  takedata.o(.constdata)
    .constdata                               0x0003fd50   Section      376  appsendagreeon.o(.constdata)
    CN_Ba_VidType                            0x0003fda0   Data           6  appsendagreeon.o(.constdata)
    CN_Ba_Type2Par                           0x0003fda6   Data         112  appsendagreeon.o(.constdata)
    CN_Ba_NoData                             0x0003fe16   Data          13  appsendagreeon.o(.constdata)
    CN_Ba_st_Par2Fun_Par                     0x0003fe24   Data         144  appsendagreeon.o(.constdata)
    .constdata                               0x0003fec8   Section      362  appgprs.o(.constdata)
    CN_Ba_st_AppGprs_Order_Set               0x0003fecc   Data         344  appgprs.o(.constdata)
    .constdata                               0x00040034   Section      292  opensensor.o(.constdata)
    CN_Ba_OutPar                             0x00040034   Data          14  opensensor.o(.constdata)
    CN_Ba_st_WorkFlow_Table                  0x00040044   Data         272  opensensor.o(.constdata)
    .constdata                               0x00040158   Section      676  accoper.o(.constdata)
    CN_Ba_TimerPar_Term                      0x000402fc   Data         160  accoper.o(.constdata)
    CN_Ba_AccOpen_st_Affair_Term             0x0004039c   Data          36  accoper.o(.constdata)
    CN_Ba_AccClose_st_Affair_Term            0x000403c0   Data          36  accoper.o(.constdata)
    CN_Ba_st_Affair_TermClose                0x000403e4   Data          24  accoper.o(.constdata)
    .constdata                               0x000403fc   Section      260  appagreedatasensor.o(.constdata)
    CN_Ba_st_DataType_uint8                  0x000403fc   Data         192  appagreedatasensor.o(.constdata)
    CN_Ba_st_DataType_int32                  0x000404bc   Data          40  appagreedatasensor.o(.constdata)
    CN_st_DataType_uint16                    0x000404e4   Data          16  appagreedatasensor.o(.constdata)
    .constdata                               0x00040500   Section       16  space.o(.constdata)
    .constdata                               0x00040510   Section      472  jugeoper.o(.constdata)
    CN_ParType                               0x00040514   Data          36  jugeoper.o(.constdata)
    CN_Ba_st_Juge_void                       0x00040538   Data         432  jugeoper.o(.constdata)
    .constdata                               0x000406e8   Section       92  warningupate.o(.constdata)
    CN_Ba_st_Data_Number2Point               0x000406e8   Data          88  warningupate.o(.constdata)
    .constdata                               0x00040744   Section      240  displayoper.o(.constdata)
    CN_Ba_st_SeePar_Data                     0x00040744   Data         160  displayoper.o(.constdata)
    CN_Ba_st_DispLay_Oper_Fun                0x000407f0   Data          40  displayoper.o(.constdata)
    CN_Ba_Display                            0x00040818   Data          20  displayoper.o(.constdata)
    .constdata                               0x00040834   Section       40  messageandphone.o(.constdata)
    .constdata                               0x0004085c   Section       56  logonserver.o(.constdata)
    .constdata                               0x00040894   Section      124  openandclose.o(.constdata)
    CN_Ba_st_Affair_Timer                    0x00040894   Data          20  openandclose.o(.constdata)
    CN_Ba_st_Login                           0x000408a8   Data          20  openandclose.o(.constdata)
    CN_Ba_st_Dev                             0x000408bc   Data          20  openandclose.o(.constdata)
    .constdata                               0x00040910   Section       48  cos_i.o(.constdata)
    C                                        0x00040910   Data          48  cos_i.o(.constdata)
    .constdata                               0x00040940   Section      200  rred.o(.constdata)
    pio2s                                    0x00040940   Data          48  rred.o(.constdata)
    twooverpi                                0x00040970   Data         152  rred.o(.constdata)
    .constdata                               0x00040a08   Section       40  sin_i.o(.constdata)
    S                                        0x00040a08   Data          40  sin_i.o(.constdata)
    .conststring                             0x00040a30   Section      633  huaiweigprs.o(.conststring)
    .conststring                             0x00040cac   Section        3  gprshard.o(.conststring)
    .conststring                             0x00040cb0   Section       63  gps.o(.conststring)
    .conststring                             0x00040cf0   Section       65  ftp.o(.conststring)
    .conststring                             0x00040d34   Section       55  _flash.o(.conststring)
    .conststring                             0x00040d6c   Section      205  _filedata.o(.conststring)
    .data                                    0x40000000   Section        4  os_cpu_c.o(.data)
    .data                                    0x40000004   Section       68  os_core.o(.data)
    .data                                    0x40000048   Section        4  _ascnumber.o(.data)
    .data                                    0x4000004c   Section       44  _can.o(.data)
    .data                                    0x40000078   Section        4  _rtc.o(.data)
    RTCSem                                   0x40000078   Data           4  _rtc.o(.data)
    .data                                    0x4000007c   Section        5  _spi.o(.data)
    SPISem                                   0x4000007c   Data           4  _spi.o(.data)
    UseSPITaskPro                            0x40000080   Data           1  _spi.o(.data)
    .data                                    0x40000084   Section       92  _uart.o(.data)
    .data                                    0x400000e0   Section        4  adchard.o(.data)
    AdcSem                                   0x400000e0   Data           4  adchard.o(.data)
    .data                                    0x400000e4   Section       10  ds18b20.o(.data)
    intrup                                   0x400000e4   Data           4  ds18b20.o(.data)
    DS18B20Sem                               0x400000e8   Data           4  ds18b20.o(.data)
    .data                                    0x400000f0   Section       12  huaiweigprs.o(.data)
    .data                                    0x400000fc   Section       12  gprshard.o(.data)
    .data                                    0x40000108   Section       12  less.o(.data)
    DateTime                                 0x40000108   Data           7  less.o(.data)
    LessSem                                  0x40000110   Data           4  less.o(.data)
    .data                                    0x40000114   Section       12  acc.o(.data)
    ACCSem                                   0x40000114   Data           4  acc.o(.data)
    CN_State                                 0x40000118   Data           1  acc.o(.data)
    DateTime                                 0x40000119   Data           7  acc.o(.data)
    .data                                    0x40000120   Section       13  oil.o(.data)
    OilSem                                   0x40000120   Data           4  oil.o(.data)
    CN_State                                 0x40000124   Data           1  oil.o(.data)
    DateTime                                 0x40000125   Data           7  oil.o(.data)
    .data                                    0x40000130   Section       64  sensor.o(.data)
    SensorSem                                0x40000130   Data           4  sensor.o(.data)
    .data                                    0x40000170   Section        8  gps.o(.data)
    .data                                    0x40000178   Section        5  display.o(.data)
    DisplaySem                               0x40000178   Data           4  display.o(.data)
    CN_State                                 0x4000017c   Data           1  display.o(.data)
    .data                                    0x40000180   Section       22  temperture.o(.data)
    TempertureSem                            0x40000180   Data           4  temperture.o(.data)
    DateTime                                 0x40000184   Data           7  temperture.o(.data)
    TemptureValue                            0x4000018c   Data           4  temperture.o(.data)
    CN_st_Temperture_State                   0x40000190   Data           6  temperture.o(.data)
    .data                                    0x40000198   Section       13  mileage.o(.data)
    MileageSem                               0x40000198   Data           4  mileage.o(.data)
    DateTime                                 0x4000019c   Data           7  mileage.o(.data)
    PointCount                               0x400001a3   Data           1  mileage.o(.data)
    ReadFist                                 0x400001a4   Data           1  mileage.o(.data)
    .data                                    0x400001a8   Section        8  gprstzxy.o(.data)
    GprsSem                                  0x400001a8   Data           4  gprstzxy.o(.data)
    CN_State                                 0x400001ac   Data           2  gprstzxy.o(.data)
    CN_Gprsfd                                0x400001ae   Data           2  gprstzxy.o(.data)
    .data                                    0x400001b0   Section        8  uarttzxy.o(.data)
    GprsSem                                  0x400001b0   Data           4  uarttzxy.o(.data)
    CN_State                                 0x400001b4   Data           2  uarttzxy.o(.data)
    CN_Gprsfd                                0x400001b6   Data           2  uarttzxy.o(.data)
    .data                                    0x400001b8   Section       11  arealrm.o(.data)
    ArealrmSem                               0x400001b8   Data           4  arealrm.o(.data)
    DateTime                                 0x400001bc   Data           7  arealrm.o(.data)
    .data                                    0x400001c4   Section       12  help.o(.data)
    ACCSem                                   0x400001c4   Data           4  help.o(.data)
    CN_State                                 0x400001c8   Data           1  help.o(.data)
    DateTime                                 0x400001c9   Data           7  help.o(.data)
    .data                                    0x400001d0   Section        5  onoroff.o(.data)
    ACCSem                                   0x400001d0   Data           4  onoroff.o(.data)
    CN_State                                 0x400001d4   Data           1  onoroff.o(.data)
    .data                                    0x400001d8   Section        5  adc1.o(.data)
    OilSem                                   0x400001d8   Data           4  adc1.o(.data)
    CN_State                                 0x400001dc   Data           1  adc1.o(.data)
    .data                                    0x400001e0   Section       32  smstzxy.o(.data)
    SmsSem                                   0x400001e0   Data           4  smstzxy.o(.data)
    CN_State                                 0x400001fc   Data           2  smstzxy.o(.data)
    CN_Gprsfd                                0x400001fe   Data           2  smstzxy.o(.data)
    .data                                    0x40000200   Section       12  _rwfile.o(.data)
    X_BUF                                    0x40000204   Data           4  _rwfile.o(.data)
    FileSem                                  0x40000208   Data           4  _rwfile.o(.data)
    .data                                    0x4000020c   Section        4  _downfile.o(.data)
    .data                                    0x40000210   Section       16  sensorcontr.o(.data)
    CN_st_Sensor_State                       0x40000210   Data           3  sensorcontr.o(.data)
    SensorContrSem                           0x40000214   Data           4  sensorcontr.o(.data)
    CN_st_Display_Send                       0x40000218   Data           8  sensorcontr.o(.data)
    .data                                    0x40000220   Section      100  gprs.o(.data)
    GprsTaskStk                              0x40000224   Data           4  gprs.o(.data)
    .data                                    0x40000284   Section       15  timer.o(.data)
    TimerSem                                 0x40000284   Data           4  timer.o(.data)
    Timer_Stk                                0x40000288   Data           4  timer.o(.data)
    DateTime                                 0x4000028c   Data           7  timer.o(.data)
    .data                                    0x40000294   Section       14  photo.o(.data)
    .data                                    0x400002a4   Section        8  gpsandmileage.o(.data)
    STK                                      0x400002a8   Data           4  gpsandmileage.o(.data)
    .data                                    0x400002ac   Section       36  ftp.o(.data)
    CN_Data                                  0x400002cc   Data           4  ftp.o(.data)
    .data                                    0x400002d0   Section        4  tz_agreen.o(.data)
    ptFun                                    0x400002d0   Data           4  tz_agreen.o(.data)
    .data                                    0x400002d4   Section       22  tzv2.1.o(.data)
    X_BUF                                    0x400002d4   Data           4  tzv2.1.o(.data)
    State                                    0x400002d8   Data           3  tzv2.1.o(.data)
    STK                                      0x400002e0   Data           4  tzv2.1.o(.data)
    FlagNumber                               0x400002e4   Data           6  tzv2.1.o(.data)
    .data                                    0x400002ec   Section        4  _rwflashlgc.o(.data)
    X_BUF                                    0x400002ec   Data           4  _rwflashlgc.o(.data)
    .data                                    0x400002f0   Section       52  appsendagreeon.o(.data)
    AppSendAgreeOnSem                        0x400002f0   Data           4  appsendagreeon.o(.data)
    AppSendAgreeOnSem1                       0x400002f4   Data           4  appsendagreeon.o(.data)
    CN_Box_AppSend                           0x400002f8   Data           4  appsendagreeon.o(.data)
    JugePar                                  0x400002fc   Data          40  appsendagreeon.o(.data)
    .data                                    0x40000324   Section       40  appgprs.o(.data)
    .data                                    0x4000034c   Section        2  accoper.o(.data)
    AccUse                                   0x4000034c   Data           1  accoper.o(.data)
    AccState                                 0x4000034d   Data           1  accoper.o(.data)
    .data                                    0x40000350   Section       12  appagreedatasensor.o(.data)
    BackDateTimer                            0x40000350   Data           7  appagreedatasensor.o(.data)
    AddTimeHigh                              0x40000358   Data           4  appagreedatasensor.o(.data)
    .data                                    0x4000035c   Section       32  space.o(.data)
    BackDate                                 0x4000036c   Data           7  space.o(.data)
    AddTimeHigh                              0x40000374   Data           4  space.o(.data)
    AddTimeLow                               0x40000378   Data           4  space.o(.data)
    .data                                    0x4000037c   Section        4  warningupate.o(.data)
    Stk                                      0x4000037c   Data           4  warningupate.o(.data)
    .data                                    0x40000380   Section        1  displayoper.o(.data)
    DisTimerfd                               0x40000380   Data           1  displayoper.o(.data)
    .data                                    0x40000381   Section        1  messageandphone.o(.data)
    ClosePhTimerfd                           0x40000381   Data           1  messageandphone.o(.data)
    .data                                    0x40000384   Section       17  logonserver.o(.data)
    CN_st_SmsLink_State                      0x40000392   Data           3  logonserver.o(.data)
    .data                                    0x40000398   Section       46  openandclose.o(.data)
    CloseTimer                               0x40000398   Data           1  openandclose.o(.data)
    Timerfd                                  0x40000399   Data           1  openandclose.o(.data)
    CloseGpsTerm                             0x4000039c   Data          20  openandclose.o(.data)
    CloseGprsTerm                            0x400003b0   Data          20  openandclose.o(.data)
    .data                                    0x400003c8   Section       28  updatesoftware.o(.data)
    .bss                                     0x400003e4   Section     5892  os_core.o(.bss)
    .bss                                     0x40001ae8   Section      320  _can.o(.bss)
    .bss                                     0x40001c28   Section       96  adchard.o(.bss)
    .bss                                     0x40001c88   Section      288  less.o(.bss)
    Buf                                      0x40001d44   Data         100  less.o(.bss)
    .bss                                     0x40001da8   Section       40  oil.o(.bss)
    .bss                                     0x40001dd0   Section      520  sensor.o(.bss)
    CN_st_Sensor_Oper                        0x40001dd0   Data         520  sensor.o(.bss)
    .bss                                     0x40001fd8   Section      100  gps.o(.bss)
    .bss                                     0x4000203c   Section       32  temperture.o(.bss)
    CN_st_Temperture_Par_Oper                0x4000203c   Data          32  temperture.o(.bss)
    .bss                                     0x4000205c   Section      104  mileage.o(.bss)
    CN_LctDat                                0x4000205c   Data          16  mileage.o(.bss)
    CN_GpsPoint                              0x4000206c   Data          72  mileage.o(.bss)
    CN_st_Mileage_Par_Oper                   0x400020b4   Data          16  mileage.o(.bss)
    .bss                                     0x400020c4   Section      108  arealrm.o(.bss)
    CN_LctDat                                0x400020c4   Data          16  arealrm.o(.bss)
    CN_st_Arealrm_Par_Oper                   0x400020d4   Data          64  arealrm.o(.bss)
    .bss                                     0x40002130   Section      743  smstzxy.o(.bss)
    .bss                                     0x40002418   Section     1440  _rwfile.o(.bss)
    .bss                                     0x400029b8   Section      572  _downfile.o(.bss)
    .bss                                     0x40002bf4   Section     3194  sensorcontr.o(.bss)
    CN_st_Affair_Sensor                      0x40002bf4   Data         160  sensorcontr.o(.bss)
    CN_st_Affair_Sensor_OperData             0x40002c94   Data          60  sensorcontr.o(.bss)
    X_BUF                                    0x40002cd0   Data         436  sensorcontr.o(.bss)
    STK                                      0x40002e84   Data        2520  sensorcontr.o(.bss)
    CN_st_Data_Gprs_Call                     0x4000385c   Data          18  sensorcontr.o(.bss)
    .bss                                     0x40003870   Section      184  gprs.o(.bss)
    .bss                                     0x40003928   Section      120  timer.o(.bss)
    .bss                                     0x400039a0   Section     1168  photo.o(.bss)
    PhotoTaskStk                             0x400039c8   Data         600  photo.o(.bss)
    .bss                                     0x40003e30   Section      112  gpsandmileage.o(.bss)
    .bss                                     0x40003ea0   Section     2004  ftp.o(.bss)
    .bss                                     0x40004674   Section     2148  tzv2.1.o(.bss)
    CN_st_AgreeOn_OpenPar                    0x40004674   Data          72  tzv2.1.o(.bss)
    BigBuf                                   0x400046bc   Data        2048  tzv2.1.o(.bss)
    CN_st_st_AgreeOn_Dev_Par                 0x40004ebc   Data          16  tzv2.1.o(.bss)
    CN_st_Appair_Tzv2                        0x40004ecc   Data          12  tzv2.1.o(.bss)
    .bss                                     0x40004ed8   Section       24  _rwflashlgc.o(.bss)
    .bss                                     0x40004ef0   Section      324  _filedata.o(.bss)
    .bss                                     0x40005034   Section     4620  appsendagreeon.o(.bss)
    X_BUF                                    0x40005034   Data        2048  appsendagreeon.o(.bss)
    STK                                      0x40005840   Data        2560  appsendagreeon.o(.bss)
    .bss                                     0x40006240   Section      340  appgprs.o(.bss)
    .bss                                     0x40006394   Section      144  accoper.o(.bss)
    AddTimerNumber                           0x40006394   Data          72  accoper.o(.bss)
    EndTimerNumber                           0x400063dc   Data          72  accoper.o(.bss)
    .bss                                     0x40006424   Section     1556  logonserver.o(.bss)
    .bss                                     0x40006a38   Section       20  openandclose.o(.bss)
    CN_st_BoxData_LogOnServer                0x40006a38   Data          20  openandclose.o(.bss)
    .bss                                     0x40006a4c   Section     1380  updatesoftware.o(.bss)
    .bss                                     0x40006fb0   Section     1024  _init.o(.bss)
    .bss                                     0x400073b0   Section      228  rand.o(.bss)
    .bss                                     0x40007494   Section       96  libspace.o(.bss)
    HEAP                                     0x400074f8   Section        1  startup.o(HEAP)
    Heap_Mem                                 0x400074f8   Data           1  startup.o(HEAP)
    STACK                                    0x40007500   Section     1056  startup.o(STACK)
    Stack_Mem                                0x40007500   Data        1056  startup.o(STACK)
    SWIStacks                                0x40007920   Section      128  os_cpu_a.o(SWIStacks)
    Stack_Top                                0x40007920   Data           0  startup.o(STACK)
    SvcStackSpace                            0x40007920   Data         128  os_cpu_a.o(SWIStacks)

    Global Symbols

    Symbol Name                              Value     Ov Type        Size  Object(Section)

    BuildAttributes$$THM_ISAv1$ARM_ISAv4$S$PE$A:L22$X:L11$S22$IEEE1$IW$USESV6$~STKCKD$USESV7$~SHL$OTIME$ROPI$IEEEX$EBA8$UX$STANDARDLIB$REQ8$PRES8$EABIv2 0x00000000   Number         0  anon$$obj.o ABSOLUTE
    __ARM_use_no_argv                        0x00000000   Number         0  _init.o ABSOLUTE
    __ARM_exceptions_init                     - Undefined Weak Reference
    __alloca_initialize                       - Undefined Weak Reference
    __arm_preinit_                            - Undefined Weak Reference
    __cpp_initialize__aeabi_                  - Undefined Weak Reference
    __cxa_finalize                            - Undefined Weak Reference
    __rt_locale                               - Undefined Weak Reference
    __sigvec_lookup                           - Undefined Weak Reference
    _atexit_init                              - Undefined Weak Reference
    _call_atexit_fns                          - Undefined Weak Reference
    _clock_init                               - Undefined Weak Reference
    _fp_trap_init                             - Undefined Weak Reference
    _fp_trap_shutdown                         - Undefined Weak Reference
    _get_lc_collate                           - Undefined Weak Reference
    _get_lc_ctype                             - Undefined Weak Reference
    _get_lc_monetary                          - Undefined Weak Reference
    _get_lc_numeric                           - Undefined Weak Reference
    _get_lc_time                              - Undefined Weak Reference
    _getenv_init                              - Undefined Weak Reference
    _handle_redirection                       - Undefined Weak Reference
    _init_alloc                               - Undefined Weak Reference
    _init_user_alloc                          - Undefined Weak Reference
    _initio                                   - Undefined Weak Reference
    _signal_finish                            - Undefined Weak Reference
    _signal_init                              - Undefined Weak Reference
    _terminate_alloc                          - Undefined Weak Reference
    _terminate_user_alloc                     - Undefined Weak Reference
    _terminateio                              - Undefined Weak Reference
    Reset_Handler                            0x00000058   ARM Code       0  startup.o(RESET)
    __main                                   0x000000b8   ARM Code       8  __main.o(!!!main)
    __scatterload                            0x000000c0   ARM Code       0  __scatter.o(!!!scatter)
    __scatterload_rt2                        0x000000c0   ARM Code      52  __scatter.o(!!!scatter)
    __scatterload_null                       0x000000d4   ARM Code       0  __scatter.o(!!!scatter)
    __decompress                             0x000000fc   ARM Code      92  __dczerorl2.o(!!dczerorl2)
    __decompress1                            0x000000fc   ARM Code       0  __dczerorl2.o(!!dczerorl2)
    __scatterload_zeroinit                   0x00000158   ARM Code      44  __scatter_zi.o(!!handler_zi)
    Inline ARM to Thumb Veneer to __rt_lib_init 0x00000184   ARM Code       8  libinit.o(.ARM.Collect$$libinit$$00000000)
    __rt_lib_init                            0x0000018d   Thumb Code     0  libinit.o(.ARM.Collect$$libinit$$00000000)
    __rt_lib_init_fp_1                       0x0000018f   Thumb Code     0  libinit2.o(.ARM.Collect$$libinit$$00000002)
    __rt_lib_init_heap_1                     0x0000018f   Thumb Code     0  libinit2.o(.ARM.Collect$$libinit$$0000000A)
    __rt_lib_init_preinit_1                  0x0000018f   Thumb Code     0  libinit2.o(.ARM.Collect$$libinit$$00000004)
    __rt_lib_init_rand_2                     0x0000018f   Thumb Code     0  libinit2.o(.ARM.Collect$$libinit$$0000000D)
    __rt_lib_init_user_alloc_1               0x0000018f   Thumb Code     0  libinit2.o(.ARM.Collect$$libinit$$0000000C)
    __rt_lib_init_alloca_1                   0x00000193   Thumb Code     0  libinit2.o(.ARM.Collect$$libinit$$0000002E)
    __rt_lib_init_argv_1                     0x00000193   Thumb Code     0  libinit2.o(.ARM.Collect$$libinit$$0000002C)
    __rt_lib_init_atexit_1                   0x00000193   Thumb Code     0  libinit2.o(.ARM.Collect$$libinit$$0000001B)
    __rt_lib_init_clock_1                    0x00000193   Thumb Code     0  libinit2.o(.ARM.Collect$$libinit$$00000021)
    __rt_lib_init_cpp_1                      0x00000193   Thumb Code     0  libinit2.o(.ARM.Collect$$libinit$$00000032)
    __rt_lib_init_exceptions_1               0x00000193   Thumb Code     0  libinit2.o(.ARM.Collect$$libinit$$00000030)
    __rt_lib_init_fp_trap_1                  0x00000193   Thumb Code     0  libinit2.o(.ARM.Collect$$libinit$$0000001F)
    __rt_lib_init_getenv_1                   0x00000193   Thumb Code     0  libinit2.o(.ARM.Collect$$libinit$$00000023)
    __rt_lib_init_lc_collate_1               0x00000193   Thumb Code     0  libinit2.o(.ARM.Collect$$libinit$$00000011)
    __rt_lib_init_lc_ctype_1                 0x00000193   Thumb Code     0  libinit2.o(.ARM.Collect$$libinit$$00000013)
    __rt_lib_init_lc_monetary_1              0x00000193   Thumb Code     0  libinit2.o(.ARM.Collect$$libinit$$00000015)
    __rt_lib_init_lc_numeric_1               0x00000193   Thumb Code     0  libinit2.o(.ARM.Collect$$libinit$$00000017)
    __rt_lib_init_lc_time_1                  0x00000193   Thumb Code     0  libinit2.o(.ARM.Collect$$libinit$$00000019)
    __rt_lib_init_rand_1                     0x00000193   Thumb Code     0  libinit2.o(.ARM.Collect$$libinit$$0000000E)
    __rt_lib_init_return                     0x00000193   Thumb Code     0  libinit2.o(.ARM.Collect$$libinit$$00000033)
    __rt_lib_init_signal_1                   0x00000193   Thumb Code     0  libinit2.o(.ARM.Collect$$libinit$$0000001D)
    __rt_lib_init_stdio_1                    0x00000193   Thumb Code     0  libinit2.o(.ARM.Collect$$libinit$$00000025)
    Inline ARM to Thumb Veneer to __rt_lib_shutdown 0x000001a0   ARM Code       8  libshutdown.o(.ARM.Collect$$libshutdown$$00000000)
    __rt_lib_shutdown                        0x000001a9   Thumb Code     0  libshutdown.o(.ARM.Collect$$libshutdown$$00000000)
    __rt_lib_shutdown_cpp_1                  0x000001ad   Thumb Code     0  libshutdown2.o(.ARM.Collect$$libshutdown$$00000002)
    __rt_lib_shutdown_fp_trap_1              0x000001ad   Thumb Code     0  libshutdown2.o(.ARM.Collect$$libshutdown$$00000007)
    __rt_lib_shutdown_heap_1                 0x000001ad   Thumb Code     0  libshutdown2.o(.ARM.Collect$$libshutdown$$0000000F)
    __rt_lib_shutdown_return                 0x000001ad   Thumb Code     0  libshutdown2.o(.ARM.Collect$$libshutdown$$00000010)
    __rt_lib_shutdown_signal_1               0x000001ad   Thumb Code     0  libshutdown2.o(.ARM.Collect$$libshutdown$$0000000A)
    __rt_lib_shutdown_stdio_1                0x000001ad   Thumb Code     0  libshutdown2.o(.ARM.Collect$$libshutdown$$00000004)
    __rt_lib_shutdown_user_alloc_1           0x000001ad   Thumb Code     0  libshutdown2.o(.ARM.Collect$$libshutdown$$0000000C)
    __rt_entry                               0x000001b4   ARM Code       0  __rtentry.o(.ARM.Collect$$rtentry$$00000000)
    __rt_entry_presh_1                       0x000001b4   ARM Code       0  __rtentry2.o(.ARM.Collect$$rtentry$$00000002)
    __rt_entry_sh                            0x000001b4   ARM Code       0  __rtentry4.o(.ARM.Collect$$rtentry$$00000004)
    __rt_entry_li                            0x000001bc   ARM Code       0  __rtentry2.o(.ARM.Collect$$rtentry$$0000000A)
    __rt_entry_postsh_1                      0x000001bc   ARM Code       0  __rtentry2.o(.ARM.Collect$$rtentry$$00000009)
    __rt_entry_main                          0x000001c0   ARM Code       0  __rtentry2.o(.ARM.Collect$$rtentry$$0000000D)
    __rt_entry_postli_1                      0x000001c0   ARM Code       0  __rtentry2.o(.ARM.Collect$$rtentry$$0000000C)
    Inline Thumb to ARM Veneer to __rt_exit  0x000001e9   Thumb Code     4  rtexit.o(.ARM.Collect$$rtexit$$00000000)
    __rt_exit                                0x000001ec   ARM Code       0  rtexit.o(.ARM.Collect$$rtexit$$00000000)
    __rt_exit_ls                             0x000001f0   ARM Code       0  rtexit2.o(.ARM.Collect$$rtexit$$00000003)
    __rt_exit_prels_1                        0x000001f0   ARM Code       0  rtexit2.o(.ARM.Collect$$rtexit$$00000002)
    __rt_exit_exit                           0x000001f4   ARM Code       0  rtexit2.o(.ARM.Collect$$rtexit$$00000004)
    ConfigurePLL                             0x000001fc   ARM Code     320  target.o(.text)
    GPIOResetInit                            0x0000033c   ARM Code     120  target.o(.text)
    init_VIC                                 0x000003b4   ARM Code      84  target.o(.text)
    TargetResetInit                          0x00000408   ARM Code      92  target.o(.text)
    Install_IRQ                              0x00000464   ARM Code      92  target.o(.text)
    init_port                                0x000004c0   ARM Code      72  target.o(.text)
    IRQ_Exception                            0x00000508   ARM Code       8  target.o(.text)
    FIQ_Exception                            0x00000510   ARM Code       8  target.o(.text)
    Timer0_Exception                         0x00000518   ARM Code      36  target.o(.text)
    Timer0Init                               0x0000053c   ARM Code      48  target.o(.text)
    VIC_Setup                                0x0000056c   ARM Code     156  target.o(.text)
    TargetInit                               0x00000620   ARM Code      44  target.o(.text)
    WatchDog                                 0x0000064c   ARM Code      72  target.o(.text)
    __user_initial_stackheap                 0x000006dc   ARM Code       0  startup.o(.text)
    OSTaskStkInit                            0x00000700   ARM Code     232  os_cpu_c.o(.text)
    SWI_Exception                            0x000007e8   ARM Code     348  os_cpu_c.o(.text)
    OSStartHighRdy                           0x00000944   ARM Code      16  os_cpu_c.o(.text)
    OSInitHookBegin                          0x00000954   ARM Code       4  os_cpu_c.o(.text)
    OSInitHookEnd                            0x00000958   ARM Code       4  os_cpu_c.o(.text)
    OSTaskCreateHook                         0x0000095c   ARM Code       8  os_cpu_c.o(.text)
    OSTaskDelHook                            0x00000964   ARM Code       8  os_cpu_c.o(.text)
    OSTaskSwHook                             0x0000096c   ARM Code       4  os_cpu_c.o(.text)
    OSTaskStatHook                           0x00000970   ARM Code       4  os_cpu_c.o(.text)
    OSTCBInitHook                            0x00000974   ARM Code       8  os_cpu_c.o(.text)
    OSTimeTickHook                           0x0000097c   ARM Code       4  os_cpu_c.o(.text)
    OSTaskIdleHook                           0x00000980   ARM Code      16  os_cpu_c.o(.text)
    OS_TaskStat                              0x00000998   ARM Code     216  os_core.o(.text)
    OS_TaskIdle                              0x00000abc   ARM Code      44  os_core.o(.text)
    OSInit                                   0x00000cb0   ARM Code      56  os_core.o(.text)
    OSIntEnter                               0x00000ce8   ARM Code      56  os_core.o(.text)
    OSIntExit                                0x00000d20   ARM Code     244  os_core.o(.text)
    OSSchedLock                              0x00000e14   ARM Code      72  os_core.o(.text)
    OS_Sched                                 0x00000e5c   ARM Code     168  os_core.o(.text)
    OSSchedUnlock                            0x00000f04   ARM Code     124  os_core.o(.text)
    OSStart                                  0x00000f80   ARM Code     132  os_core.o(.text)
    OSStatInit                               0x00001004   ARM Code      84  os_core.o(.text)
    OSTimeTick                               0x00001058   ARM Code     220  os_core.o(.text)
    OSVersion                                0x00001134   ARM Code       8  os_core.o(.text)
    OS_Dummy                                 0x0000113c   ARM Code       4  os_core.o(.text)
    OS_EventTaskRdy                          0x00001140   ARM Code     200  os_core.o(.text)
    OS_EventTaskWait                         0x00001208   ARM Code     192  os_core.o(.text)
    OS_EventTO                               0x000012c8   ARM Code     120  os_core.o(.text)
    OS_EventWaitListInit                     0x00001340   ARM Code      32  os_core.o(.text)
    OS_TCBInit                               0x00001360   ARM Code     336  os_core.o(.text)
    OSFlagAccept                             0x00001530   ARM Code     444  os_flag.o(.text)
    OSFlagCreate                             0x000016ec   ARM Code     140  os_flag.o(.text)
    OS_FlagUnlink                            0x00001778   ARM Code      88  os_flag.o(.text)
    OSFlagDel                                0x0000185c   ARM Code     344  os_flag.o(.text)
    OSFlagPend                               0x00001a94   ARM Code     824  os_flag.o(.text)
    OSFlagPost                               0x00001dcc   ARM Code     496  os_flag.o(.text)
    OSFlagQuery                              0x00001fbc   ARM Code      96  os_flag.o(.text)
    OS_FlagInit                              0x0000201c   ARM Code      76  os_flag.o(.text)
    OSMboxAccept                             0x00002080   ARM Code      76  os_mbox.o(.text)
    OSMboxCreate                             0x000020cc   ARM Code     128  os_mbox.o(.text)
    OSMboxDel                                0x0000214c   ARM Code     344  os_mbox.o(.text)
    OSMboxPend                               0x000022a4   ARM Code     316  os_mbox.o(.text)
    OSMboxPost                               0x000023e0   ARM Code     156  os_mbox.o(.text)
    OSMboxPostOpt                            0x0000247c   ARM Code     208  os_mbox.o(.text)
    OSMboxQuery                              0x0000254c   ARM Code     116  os_mbox.o(.text)
    OSMemCreate                              0x000025cc   ARM Code     252  os_mem.o(.text)
    OSMemGet                                 0x000026c8   ARM Code     120  os_mem.o(.text)
    OSMemPut                                 0x00002740   ARM Code     116  os_mem.o(.text)
    OSMemQuery                               0x000027b4   ARM Code     120  os_mem.o(.text)
    OS_MemInit                               0x0000282c   ARM Code     116  os_mem.o(.text)
    OSQAccept                                0x000028a8   ARM Code     140  os_q.o(.text)
    OSQCreate                                0x00002934   ARM Code     236  os_q.o(.text)
    OSQDel                                   0x00002a20   ARM Code     392  os_q.o(.text)
    OSQFlush                                 0x00002ba8   ARM Code      92  os_q.o(.text)
    OSQPend                                  0x00002c04   ARM Code     364  os_q.o(.text)
    OSQPost                                  0x00002d70   ARM Code     216  os_q.o(.text)
    OSQPostFront                             0x00002e48   ARM Code     220  os_q.o(.text)
    OSQPostOpt                               0x00002f24   ARM Code     328  os_q.o(.text)
    OSQQuery                                 0x0000306c   ARM Code     164  os_q.o(.text)
    OS_QInit                                 0x00003110   ARM Code      72  os_q.o(.text)
    OSSemAccept                              0x0000316c   ARM Code      88  os_sem.o(.text)
    OSSemCreate                              0x000031c4   ARM Code     128  os_sem.o(.text)
    OSSemDel                                 0x00003244   ARM Code     344  os_sem.o(.text)
    OSSemPend                                0x0000339c   ARM Code     280  os_sem.o(.text)
    OSSemPost                                0x000034b4   ARM Code     152  os_sem.o(.text)
    OSSemQuery                               0x0000354c   ARM Code     116  os_sem.o(.text)
    OSTaskChangePrio                         0x000035d0   ARM Code     472  os_task.o(.text)
    OSTaskCreate                             0x000037a8   ARM Code     240  os_task.o(.text)
    OSTaskCreateExt                          0x00003898   ARM Code     288  os_task.o(.text)
    OSTaskDel                                0x000039b8   ARM Code     516  os_task.o(.text)
    OSTaskDelReq                             0x00003bbc   ARM Code     140  os_task.o(.text)
    OSTaskResume                             0x00003c48   ARM Code     200  os_task.o(.text)
    OSTaskStkChk                             0x00003d10   ARM Code     196  os_task.o(.text)
    OSTaskSuspend                            0x00003dd4   ARM Code     244  os_task.o(.text)
    OSTaskQuery                              0x00003ec8   ARM Code     120  os_task.o(.text)
    OSTimeDly                                0x00003f6c   ARM Code     144  os_time.o(.text)
    OSTimeDlyHMSM                            0x00003ffc   ARM Code     232  os_time.o(.text)
    OSTimeDlyResume                          0x000040e4   ARM Code     188  os_time.o(.text)
    OSTimeGet                                0x000041a0   ARM Code      32  os_time.o(.text)
    OSTimeSet                                0x000041c0   ARM Code      32  os_time.o(.text)
    CAN_Exception                            0x000076ec   ARM Code     404  _can.o(.text)
    Eint_Exception                           0x0000996c   ARM Code     156  _uart.o(.text)
    Timer1_Exception                         0x00009a08   ARM Code     312  _uart.o(.text)
    Timer2_Exception                         0x00009b40   ARM Code     260  _uart.o(.text)
    UART0_Exception                          0x00009c44   ARM Code     244  _uart.o(.text)
    UART1_Exception                          0x00009d38   ARM Code     244  _uart.o(.text)
    UART2_Exception                          0x00009e2c   ARM Code     280  _uart.o(.text)
    UART3_Exception                          0x00009f44   ARM Code     244  _uart.o(.text)
    FileData_BackSet                         0x0002c054   ARM Code     124  _filedata.o(.text)
    FileData_CheckFile                       0x0002c0d0   ARM Code     508  _filedata.o(.text)
    Build_INT_Vector_Table                   0x0003af00   ARM Code     112  _init.o(.text)
    main                                     0x0003b36c   ARM Code      48  _init.o(.text)
    Inline ARM to Thumb Veneer to srand      0x0003b404   ARM Code       8  rand.o(.text)
    srand                                    0x0003b40d   Thumb Code    46  rand.o(.text)
    _rand_init                               0x0003b43b   Thumb Code     4  rand.o(.text)
    Inline ARM to Thumb Veneer to strlen     0x0003b44c   ARM Code       8  strlen.o(.text)
    strlen                                   0x0003b455   Thumb Code    64  strlen.o(.text)
    Inline ARM to Thumb Veneer to memchr     0x0003b498   ARM Code       8  memchr.o(.text)
    memchr                                   0x0003b4a1   Thumb Code    24  memchr.o(.text)
    __aeabi_memcpy4                          0x0003b4b8   ARM Code       0  rt_memcpy_w.o(.text)
    __aeabi_memcpy8                          0x0003b4b8   ARM Code       0  rt_memcpy_w.o(.text)
    __rt_memcpy_w                            0x0003b4b8   ARM Code     100  rt_memcpy_w.o(.text)
    _memcpy_lastbytes_aligned                0x0003b504   ARM Code       0  rt_memcpy_w.o(.text)
    __aeabi_memset                           0x0003b51c   ARM Code      16  aeabi_memset.o(.text)
    __aeabi_memclr4                          0x0003b52c   ARM Code       0  rt_memclr_w.o(.text)
    __aeabi_memclr8                          0x0003b52c   ARM Code       0  rt_memclr_w.o(.text)
    __rt_memclr_w                            0x0003b52c   ARM Code      84  rt_memclr_w.o(.text)
    _memset_w                                0x0003b530   ARM Code       0  rt_memclr_w.o(.text)
    __aeabi_idiv                             0x0003b580   ARM Code       0  aeabi_sdiv.o(.text)
    __aeabi_idivmod                          0x0003b580   ARM Code     384  aeabi_sdiv.o(.text)
    __use_two_region_memory                  0x0003b701   Thumb Code     2  heapauxi.o(.text)
    __rt_heap_escrow$2region                 0x0003b703   Thumb Code     2  heapauxi.o(.text)
    __rt_heap_expand$2region                 0x0003b705   Thumb Code     2  heapauxi.o(.text)
    Inline ARM to Thumb Veneer to __set_errno 0x0003b708   ARM Code       8  _rserrno.o(.text)
    __read_errno                             0x0003b711   Thumb Code    14  _rserrno.o(.text)
    __set_errno                              0x0003b71f   Thumb Code    12  _rserrno.o(.text)
    __aeabi_memclr                           0x0003b72c   ARM Code       0  rt_memclr.o(.text)
    __rt_memclr                              0x0003b72c   ARM Code      64  rt_memclr.o(.text)
    _memset                                  0x0003b730   ARM Code       0  rt_memclr.o(.text)
    Inline Thumb to ARM Veneer to __aeabi_errno_addr 0x0003b76d   Thumb Code     4  rt_errno_addr_intlibspace.o(.text)
    __aeabi_errno_addr                       0x0003b770   ARM Code      12  rt_errno_addr_intlibspace.o(.text)
    __errno$intlibspace                      0x0003b770   ARM Code       0  rt_errno_addr_intlibspace.o(.text)
    __rt_errno_addr$intlibspace              0x0003b770   ARM Code       0  rt_errno_addr_intlibspace.o(.text)
    __user_libspace                          0x0003b77c   ARM Code      12  libspace.o(.text)
    __user_perproc_libspace                  0x0003b77c   ARM Code       0  libspace.o(.text)
    __user_perthread_libspace                0x0003b77c   ARM Code       0  libspace.o(.text)
    __user_setup_stackheap                   0x0003b788   ARM Code      96  sys_stackheap_outer.o(.text)
    exit                                     0x0003b7e9   Thumb Code    20  exit.o(.text)
    Inline ARM to Thumb Veneer to _sys_exit  0x0003b7fc   ARM Code       8  sys_exit.o(.text)
    _sys_exit                                0x0003b805   Thumb Code     8  sys_exit.o(.text)
    __I$use$semihosting                      0x0003b810   ARM Code       0  use_no_semi.o(.text)
    __use_no_semihosting_swi                 0x0003b810   ARM Code       4  use_no_semi.o(.text)
    __aeabi_uidiv                            0x0003b814   ARM Code       0  aeabi_sdiv.o(.text_udiv)
    __aeabi_uidivmod                         0x0003b814   ARM Code      36  aeabi_sdiv.o(.text_udiv)
    __semihosting_library_function           0x0003b814   ARM Code       0  indicate_semi.o(.text)
    IRQ_Handler                              0x0003b838   ARM Code       0  irq.o(IRQ)
    Timer0_Handler                           0x0003b8b4   ARM Code       0  irq.o(IRQ)
    Uart0_Handler                            0x0003b930   ARM Code       0  irq.o(IRQ)
    Uart1_Handler                            0x0003b9ac   ARM Code       0  irq.o(IRQ)
    Uart2_Handler                            0x0003ba28   ARM Code       0  irq.o(IRQ)
    Uart3_Handler                            0x0003baa4   ARM Code       0  irq.o(IRQ)
    CAN_Handler                              0x0003bb20   ARM Code       0  irq.o(IRQ)
    Timer1_Handler                           0x0003bb9c   ARM Code       0  irq.o(IRQ)
    Timer2_Handler                           0x0003bc18   ARM Code       0  irq.o(IRQ)
    EINT2_Handler                            0x0003bc94   ARM Code       0  irq.o(IRQ)
    __ARM_fpclassify                         0x0003bd28   ARM Code      48  fpclassify.o(i.__ARM_fpclassify)
    __ieee754_rem_pio2                       0x0003bd58   ARM Code    1236  rred.o(i.__ieee754_rem_pio2)
    __kernel_cos                             0x0003c26c   ARM Code     404  cos_i.o(i.__kernel_cos)
    __kernel_poly                            0x0003c408   ARM Code     256  poly.o(i.__kernel_poly)
    __kernel_sin                             0x0003c508   ARM Code     368  sin_i.o(i.__kernel_sin)
    __mathlib_dbl_infnan                     0x0003c684   ARM Code       8  dunder.o(i.__mathlib_dbl_infnan)
    __mathlib_dbl_invalid                    0x0003c68c   ARM Code      20  dunder.o(i.__mathlib_dbl_invalid)
    __mathlib_dbl_underflow                  0x0003c6a0   ARM Code      20  dunder.o(i.__mathlib_dbl_underflow)
    cos                                      0x0003c6b4   ARM Code     236  cos.o(i.cos)
    sin                                      0x0003c7a4   ARM Code     244  sin.o(i.sin)
    sqrt                                     0x0003c89c   ARM Code     112  sqrt.o(i.sqrt)
    SoftwareInterrupt                        0x0003c90c   ARM Code       0  os_cpu_a.o(subr)
    OSIntCtxSw                               0x0003c948   ARM Code       0  os_cpu_a.o(subr)
    __OSStartHighRdy                         0x0003c9dc   ARM Code       0  os_cpu_a.o(subr)
    __aeabi_d2f                              0x0003ca1c   ARM Code       0  d2f.o(x$fpl$d2f)
    _d2f                                     0x0003ca1c   ARM Code     108  d2f.o(x$fpl$d2f)
    __aeabi_dadd                             0x0003ca88   ARM Code       0  daddsub_noclz.o(x$fpl$dadd)
    _dadd                                    0x0003ca88   ARM Code     336  daddsub_noclz.o(x$fpl$dadd)
    __fpl_dcheck_NaN1                        0x0003cbdc   ARM Code      12  dcheck1.o(x$fpl$dcheck1)
    __aeabi_ddiv                             0x0003cbec   ARM Code       0  ddiv.o(x$fpl$ddiv)
    _ddiv                                    0x0003cbec   ARM Code     600  ddiv.o(x$fpl$ddiv)
    __aeabi_d2iz                             0x0003cecc   ARM Code       0  dfix.o(x$fpl$dfix)
    _dfix                                    0x0003cecc   ARM Code     112  dfix.o(x$fpl$dfix)
    __aeabi_i2d                              0x0003cf3c   ARM Code       0  dflt_noclz.o(x$fpl$dflt)
    _dflt                                    0x0003cf3c   ARM Code      88  dflt_noclz.o(x$fpl$dflt)
    __dflt_normalise                         0x0003cf4c   ARM Code       0  dflt_noclz.o(x$fpl$dflt)
    __aeabi_ui2d                             0x0003cf94   ARM Code       0  dflt_noclz.o(x$fpl$dfltu)
    _dfltu                                   0x0003cf94   ARM Code      12  dflt_noclz.o(x$fpl$dfltu)
    __aeabi_dmul                             0x0003cfa0   ARM Code       0  dmul.o(x$fpl$dmul)
    _dmul                                    0x0003cfa0   ARM Code     372  dmul.o(x$fpl$dmul)
    __fpl_dnaninf                            0x0003d120   ARM Code     192  dnaninf.o(x$fpl$dnaninf)
    __fpl_dretinf                            0x0003d1e0   ARM Code      16  dretinf.o(x$fpl$dretinf)
    __aeabi_drsub                            0x0003d1f0   ARM Code       0  daddsub_noclz.o(x$fpl$drsb)
    _drsb                                    0x0003d1f0   ARM Code      24  daddsub_noclz.o(x$fpl$drsb)
    _dsqrt                                   0x0003d208   ARM Code     516  dsqrt_noumaal.o(x$fpl$dsqrt)
    __aeabi_dsub                             0x0003d410   ARM Code       0  daddsub_noclz.o(x$fpl$dsub)
    _dsub                                    0x0003d410   ARM Code     576  daddsub_noclz.o(x$fpl$dsub)
    __aeabi_f2d                              0x0003d654   ARM Code       0  f2d.o(x$fpl$f2d)
    _f2d                                     0x0003d654   ARM Code     100  f2d.o(x$fpl$f2d)
    __aeabi_fadd                             0x0003d6b8   ARM Code       0  faddsub_noclz.o(x$fpl$fadd)
    _fadd                                    0x0003d6b8   ARM Code     196  faddsub_noclz.o(x$fpl$fadd)
    __fpl_fcmp_Inf                           0x0003d77c   ARM Code      28  fcmpi.o(x$fpl$fcmpinf)
    __aeabi_f2uiz                            0x0003d798   ARM Code       0  ffixu.o(x$fpl$ffixu)
    _ffixu                                   0x0003d798   ARM Code      84  ffixu.o(x$fpl$ffixu)
    __aeabi_i2f                              0x0003d7ec   ARM Code       0  fflt_noclz.o(x$fpl$fflt)
    _fflt                                    0x0003d7ec   ARM Code      92  fflt_noclz.o(x$fpl$fflt)
    __fflt_normalise                         0x0003d7f8   ARM Code       0  fflt_noclz.o(x$fpl$fflt)
    __aeabi_ui2f                             0x0003d848   ARM Code       0  fflt_noclz.o(x$fpl$ffltu)
    _ffltu                                   0x0003d848   ARM Code       8  fflt_noclz.o(x$fpl$ffltu)
    __aeabi_cfcmple                          0x0003d850   ARM Code       0  fleqf.o(x$fpl$fleqf)
    _fcmple                                  0x0003d850   ARM Code     132  fleqf.o(x$fpl$fleqf)
    __fpl_fcmple_InfNaN                      0x0003d8bc   ARM Code       0  fleqf.o(x$fpl$fleqf)
    __aeabi_fmul                             0x0003d8d4   ARM Code       0  fmul.o(x$fpl$fmul)
    _fmul                                    0x0003d8d4   ARM Code     256  fmul.o(x$fpl$fmul)
    __fpl_fnaninf                            0x0003d9d4   ARM Code     168  fnaninf.o(x$fpl$fnaninf)
    __fpl_fretinf                            0x0003da7c   ARM Code      16  fretinf.o(x$fpl$fretinf)
    __aeabi_cfrcmple                         0x0003da8c   ARM Code       0  frleqf.o(x$fpl$frleqf)
    _frcmple                                 0x0003da8c   ARM Code     124  frleqf.o(x$fpl$frleqf)
    __aeabi_fsub                             0x0003db08   ARM Code       0  faddsub_noclz.o(x$fpl$fsub)
    _fsub                                    0x0003db08   ARM Code     304  faddsub_noclz.o(x$fpl$fsub)
    __fpl_return_NaN                         0x0003dc38   ARM Code     116  retnan.o(x$fpl$retnan)
    __ARM_scalbn                             0x0003dcac   ARM Code     104  scalbn.o(x$fpl$scalbn)
    __fpl_cmpreturn                          0x0003dd14   ARM Code      60  trapv.o(x$fpl$trapveneer)
    OSMapTbl                                 0x0003dd50   Data           8  os_core.o(.constdata)
    __I$use$fp                               0x0003dd50   Number         0  usenofp.o(x$fpl$usenofp)
    OSUnMapTbl                               0x0003dd58   Data         256  os_core.o(.constdata)
    CN_st_Fun_Ecc                            0x0003de58   Data           8  _arithmetic.o(.constdata)
    CN_st_Fun_Crc                            0x0003de60   Data           4  _arithmetic.o(.constdata)
    CN_st_Fun_CheckSum                       0x0003de64   Data           4  _arithmetic.o(.constdata)
    CN_st_Fun_CheckAdd                       0x0003de68   Data           4  _arithmetic.o(.constdata)
    CN_st_Fun_Crc1021                        0x0003de6c   Data           4  _arithmetic.o(.constdata)
    CN_st_Fun_Arithmetic                     0x0003de70   Data          20  _arithmetic.o(.constdata)
    CN_st_Fun_AscNumber                      0x0003df84   Data         184  _ascnumber.o(.constdata)
    FixPointValue                            0x0003e03c   Data          40  _ascnumber.o(.constdata)
    CN_st_Asc_GetData                        0x0003e064   Data          18  _ascnumber.o(.constdata)
    CN_st_Fun_Date                           0x0003e078   Data          16  _date.o(.constdata)
    CN_st_Fun_RTC                            0x0003e088   Data          12  _rtc.o(.constdata)
    CN_st_Fun_Spi                            0x0003e094   Data          36  _spi.o(.constdata)
    CN_st_Fun_Uart                           0x0003e0b8   Data          20  _uart.o(.constdata)
    CN_Ba_PortDe                             0x0003e0cc   Data           8  adchard.o(.constdata)
    CN_Ba_PortSpace                          0x0003e0d4   Data           8  adchard.o(.constdata)
    CN_Ba_Precision                          0x0003e0dc   Data           8  adchard.o(.constdata)
    CN_Ba_st_Data_Adc_Oper                   0x0003e0e4   Data          12  adchard.o(.constdata)
    CN_st_Fun_Adc                            0x0003e0f0   Data          16  adchard.o(.constdata)
    CN_Ba_PinDe                              0x0003e200   Data           2  ds18b20.o(.constdata)
    CN_st_Fun_18B20                          0x0003e204   Data          16  ds18b20.o(.constdata)
    CN_Huawei_st_Fun_GprsHard_Fac            0x0003e214   Data          12  huaiweigprs.o(.constdata)
    CN_HuaWei_st_GprsHard_Order              0x0003e220   Data        1476  huaiweigprs.o(.constdata)
    CN_Huawei_st_GprsHead_Result             0x0003e7e4   Data          12  huaiweigprs.o(.constdata)
    CN_Huawei_ReadMessage                    0x0003e7f0   Data           8  huaiweigprs.o(.constdata)
    CN_Huawei_SetMessage                     0x0003e7f8   Data           4  huaiweigprs.o(.constdata)
    CN_Huawei_Carrier                        0x0003e7fc   Data          16  huaiweigprs.o(.constdata)
    CN_Reg_State                             0x0003e80c   Data          12  huaiweigprs.o(.constdata)
    CN_Ba_CallRes                            0x0003e818   Data          32  huaiweigprs.o(.constdata)
    CN_Ba_AgreePhone                         0x0003e838   Data          32  huaiweigprs.o(.constdata)
    CN_Ba_UDPTCP                             0x0003e858   Data          16  huaiweigprs.o(.constdata)
    CN_Huawei_Link                           0x0003e868   Data           6  huaiweigprs.o(.constdata)
    CN_Huawei_TCPInitState                   0x0003e86e   Data           4  huaiweigprs.o(.constdata)
    CN_Huawei_CallTyte                       0x0003e872   Data           4  huaiweigprs.o(.constdata)
    CN_Huawei_CallState                      0x0003e876   Data          12  huaiweigprs.o(.constdata)
    CN_Huawei_Mod                            0x0003e882   Data          20  huaiweigprs.o(.constdata)
    CN_Huawei_PeperNumber                    0x0003e896   Data           4  huaiweigprs.o(.constdata)
    CN_Ba_st_Asc_GetData                     0x0003e89a   Data          18  huaiweigprs.o(.constdata)
    CN_LinkNum                               0x0003e8ac   Data           3  huaiweigprs.o(.constdata)
    CN_Huawei_LinkOper                       0x0003e8af   Data           4  huaiweigprs.o(.constdata)
    CN_st_Fun_GprsHard                       0x0003e8b4   Data          16  gprshard.o(.constdata)
    CN_st_GprsHard_Order_Cut_AT              0x0003e8c4   Data          28  gprshard.o(.constdata)
    CN_st_GprsHard_Order_Cut_ATE             0x0003e8e0   Data          28  gprshard.o(.constdata)
    CN_st_GprsHard_Order_Cut_ChipID          0x0003e8fc   Data          28  gprshard.o(.constdata)
    CN_st_GprsHard_Order_Cut_BPS             0x0003e918   Data          28  gprshard.o(.constdata)
    CN_Ba_st_Da_Uart_GprsHard                0x0003e934   Data          80  gprshard.o(.constdata)
    CN_Less_st_Sensor_ParList                0x0003e9c0   Data          12  less.o(.constdata)
    CN_Ba_st_Less_Par_Oper                   0x0003e9cc   Data          16  less.o(.constdata)
    CN_Ba_st_Less_State                      0x0003e9dc   Data           3  less.o(.constdata)
    CN_Ba_st_Less_Val                        0x0003e9e0   Data          12  less.o(.constdata)
    Com_FlagHead                             0x0003e9ec   Data           3  less.o(.constdata)
    Com_FlagEnd                              0x0003e9ef   Data           3  less.o(.constdata)
    CN_Acc_st_Sensor_ParList                 0x0003ea14   Data          12  acc.o(.constdata)
    CN_Oil_st_Sensor_ParList                 0x0003ea38   Data          12  oil.o(.constdata)
    CN_Ba_st_Sensor_Oper                     0x0003ea50   Data          20  sensor.o(.constdata)
    CN_st_Fun_Sensor                         0x0003ea64   Data          36  sensor.o(.constdata)
    CN_st_Gps_Order                          0x0003ea8c   Data          64  gps.o(.constdata)
    CN_Gps_st_Sensor_ParList                 0x0003eae4   Data          12  gps.o(.constdata)
    CN_st_Display_Par_Set                    0x0003eaf8   Data         240  display.o(.constdata)
    CN_Display_st_Sensor_ParList             0x0003ec98   Data          12  display.o(.constdata)
    CN_Temperture_st_Sensor_ParList          0x0003ecc8   Data          12  temperture.o(.constdata)
    CN_Ba_st_Temperture_State                0x0003ecd4   Data           3  temperture.o(.constdata)
    CN_Mileage_st_Sensor_ParList             0x0003ecf0   Data          12  mileage.o(.constdata)
    CN_GprsTzxy_st_Sensor_ParList            0x0003ed18   Data          12  gprstzxy.o(.constdata)
    CN_UartTzxy_st_Sensor_ParList            0x0003ed40   Data          12  uarttzxy.o(.constdata)
    CN_Arealrm_st_Sensor_ParList             0x0003ed70   Data          12  arealrm.o(.constdata)
    CN_Help_st_Sensor_ParList                0x0003ed94   Data          12  help.o(.constdata)
    CN_OnOrOff_st_Sensor_ParList             0x0003edb8   Data          12  onoroff.o(.constdata)
    CN_Adc1_st_Sensor_ParList                0x0003eddc   Data          12  adc1.o(.constdata)
    CN_SmsTzxy_st_Sensor_ParList             0x0003ee0c   Data          12  smstzxy.o(.constdata)
    CN_st_Fun_File                           0x0003ee18   Data          60  _rwfile.o(.constdata)
    CN_st_Fun_DownFile                       0x0003ee54   Data          40  _downfile.o(.constdata)
    CN_st_Fun_SensorContr                    0x0003eed4   Data          12  sensorcontr.o(.constdata)
    CN_LinkNumber                            0x0003eee0   Data           3  gprs.o(.constdata)
    CN_st_Fun_Gprs                           0x0003eee4   Data         116  gprs.o(.constdata)
    CN_st_Fun_Timer                          0x0003ef58   Data          36  timer.o(.constdata)
    CN_st_Fun_Photo                          0x0003ef7c   Data          12  photo.o(.constdata)
    CN_st_Fun_RunLen                         0x0003ef90   Data          16  gpsandmileage.o(.constdata)
    CN_st_Affair_Ftp                         0x0003efa0   Data          16  ftp.o(.constdata)
    CN_st_Ftp_CMD                            0x0003efb0   Data          36  ftp.o(.constdata)
    CN_st_Fun_FTP                            0x0003efd4   Data           8  ftp.o(.constdata)
    CN_st_Fun_Tz_Agreen                      0x0003f13c   Data           4  tz_agreen.o(.constdata)
    CN_st_Fun_Tz_Send                        0x0003f200   Data           4  tz_send.o(.constdata)
    CN_Ba_st_AgreenOn_Par2Type               0x0003f204   Data         204  tzv2.1.o(.constdata)
    CN_Delay_Timer                           0x0003f2d0   Data         144  tzv2.1.o(.constdata)
    CN_Ba_WordPar                            0x0003f360   Data          72  tzv2.1.o(.constdata)
    CN_Ba_LessPar                            0x0003f3a8   Data          20  tzv2.1.o(.constdata)
    CN_st_Fun_Tzv21                          0x0003f420   Data          24  tzv2.1.o(.constdata)
    CN_NandFlash512_st_Fun_PhyFlash          0x0003f438   Data          32  _nandflash512.o(.constdata)
    CN_Spi_st_Fun_PhyFlash                   0x0003f458   Data          32  _spiflash512.o(.constdata)
    CN_st_Flash_Chip_Features                0x0003f478   Data         144  _flash.o(.constdata)
    CN_st_Fun_PhyFlash                       0x0003f508   Data          28  _flash.o(.constdata)
    CN_st_Fun_NorFlash                       0x0003f524   Data          16  _rwflashlgc.o(.constdata)
    CN_Ba_st_File_fd_Tabel                   0x0003fa54   Data         700  _filedata.o(.constdata)
    CN_st_Fun_TakeData                       0x0003fd10   Data          64  takedata.o(.constdata)
    CN_st_Less_Space                         0x0003fd50   Data          80  appsendagreeon.o(.constdata)
    CN_st_Fun_AppSendAgreeOn                 0x0003feb4   Data          20  appsendagreeon.o(.constdata)
    CN_st_Fun_AppGprs                        0x0003fec8   Data           4  appgprs.o(.constdata)
    CN_Ba_ChargLog                           0x00040024   Data          12  appgprs.o(.constdata)
    CN_Ba_ResetDev                           0x00040030   Data           2  appgprs.o(.constdata)
    CN_st_Fun_OpenSensor                     0x00040154   Data           4  opensensor.o(.constdata)
    CN_st_Fun_AccOper                        0x00040158   Data           4  accoper.o(.constdata)
    CN_Ba_OpenMachi_Term                     0x0004015c   Data         416  accoper.o(.constdata)
    CN_st_Fun_AppAgreeDataSensor             0x000404f4   Data           4  appagreedatasensor.o(.constdata)
    CN_Ba_st_Fun_Space                       0x00040500   Data           4  space.o(.constdata)
    CN_st_Fun_JugeOper                       0x00040510   Data           4  jugeoper.o(.constdata)
    CN_st_Fun_WarningUpate                   0x00040740   Data           4  warningupate.o(.constdata)
    CN_Ba_Log                                0x000407e4   Data          12  displayoper.o(.constdata)
    CN_st_Fun_DisPlayOper                    0x0004082c   Data           8  displayoper.o(.constdata)
    CN_st_Fun_MessageAndPhone                0x00040834   Data           4  messageandphone.o(.constdata)
    CN_st_Fun_LogOnServer                    0x0004085c   Data           4  logonserver.o(.constdata)
    CN_st_Fun_OpenAndClose                   0x000408d0   Data          28  openandclose.o(.constdata)
    CN_Ba_OpenUart_CN_st_Sensor_DataPar      0x000408ec   Data          12  openandclose.o(.constdata)
    Region$$Table$$Base                      0x00040e3c   Number         0  anon$$obj.o(Region$$Table)
    Region$$Table$$Limit                     0x00040e5c   Number         0  anon$$obj.o(Region$$Table)
    OsEnterSum                               0x40000000   Data           4  os_cpu_c.o(.data)
    OSCtxSwCtr                               0x40000004   Data           4  os_core.o(.data)
    OSEventFreeList                          0x40000008   Data           4  os_core.o(.data)
    OSFlagFreeList                           0x4000000c   Data           4  os_core.o(.data)
    OSCPUUsage                               0x40000010   Data           1  os_core.o(.data)
    OSIdleCtrMax                             0x40000014   Data           4  os_core.o(.data)
    OSIdleCtrRun                             0x40000018   Data           4  os_core.o(.data)
    OSStatRdy                                0x4000001c   Data           1  os_core.o(.data)
    OSIntNesting                             0x4000001d   Data           1  os_core.o(.data)
    OSIntExitY                               0x4000001e   Data           1  os_core.o(.data)
    OSLockNesting                            0x4000001f   Data           1  os_core.o(.data)
    OSPrioCur                                0x40000020   Data           1  os_core.o(.data)
    OSPrioHighRdy                            0x40000021   Data           1  os_core.o(.data)
    OSRdyGrp                                 0x40000022   Data           1  os_core.o(.data)
    OSRdyTbl                                 0x40000023   Data           3  os_core.o(.data)
    OSRunning                                0x40000026   Data           1  os_core.o(.data)
    OSTaskCtr                                0x40000027   Data           1  os_core.o(.data)
    OSIdleCtr                                0x40000028   Data           4  os_core.o(.data)
    OSTCBCur                                 0x4000002c   Data           4  os_core.o(.data)
    OSTCBFreeList                            0x40000030   Data           4  os_core.o(.data)
    OSTCBHighRdy                             0x40000034   Data           4  os_core.o(.data)
    OSTCBList                                0x40000038   Data           4  os_core.o(.data)
    OSMemFreeList                            0x4000003c   Data           4  os_core.o(.data)
    OSQFreeList                              0x40000040   Data           4  os_core.o(.data)
    OSTime                                   0x40000044   Data           4  os_core.o(.data)
    CN_st_File_GBK                           0x40000048   Data           4  _ascnumber.o(.data)
    Can0_RxHead                              0x4000004c   Data           2  _can.o(.data)
    Can0_RxTail                              0x4000004e   Data           2  _can.o(.data)
    Can1_RxHead                              0x40000050   Data           2  _can.o(.data)
    Can1_RxTail                              0x40000052   Data           2  _can.o(.data)
    Can0UseSem                               0x40000054   Data           4  _can.o(.data)
    Can1UseSem                               0x40000058   Data           4  _can.o(.data)
    Can0RxSem                                0x4000005c   Data           4  _can.o(.data)
    Can1RxSem                                0x40000060   Data           4  _can.o(.data)
    CN_st_Fun_Can                            0x40000064   Data          20  _can.o(.data)
    BitCount                                 0x40000084   Data           1  _uart.o(.data)
    ByteRec                                  0x40000085   Data           1  _uart.o(.data)
    ByteSend                                 0x40000086   Data           1  _uart.o(.data)
    BitCountSend                             0x40000087   Data           1  _uart.o(.data)
    Uart4BaudRate                            0x40000088   Data           4  _uart.o(.data)
    UartRevState                             0x4000008c   Data           1  _uart.o(.data)
    AgreeByte                                0x4000008d   Data           1  _uart.o(.data)
    Uart0UseSem                              0x40000090   Data           4  _uart.o(.data)
    Uart1UseSem                              0x40000094   Data           4  _uart.o(.data)
    Uart2UseSem                              0x40000098   Data           4  _uart.o(.data)
    Uart3UseSem                              0x4000009c   Data           4  _uart.o(.data)
    Uart4UseSem                              0x400000a0   Data           4  _uart.o(.data)
    Uart0RxSem                               0x400000a4   Data           4  _uart.o(.data)
    Uart1RxSem                               0x400000a8   Data           4  _uart.o(.data)
    Uart2RxSem                               0x400000ac   Data           4  _uart.o(.data)
    Uart3RxSem                               0x400000b0   Data           4  _uart.o(.data)
    Uart4RxSem                               0x400000b4   Data           4  _uart.o(.data)
    ptUart0ReBuf                             0x400000b8   Data           4  _uart.o(.data)
    ptUart1ReBuf                             0x400000bc   Data           4  _uart.o(.data)
    ptUart2ReBuf                             0x400000c0   Data           4  _uart.o(.data)
    ptUart3ReBuf                             0x400000c4   Data           4  _uart.o(.data)
    ptUart4ReBuf                             0x400000c8   Data           4  _uart.o(.data)
    UART0_RxHead                             0x400000cc   Data           2  _uart.o(.data)
    UART0_RxTail                             0x400000ce   Data           2  _uart.o(.data)
    UART1_RxHead                             0x400000d0   Data           2  _uart.o(.data)
    UART1_RxTail                             0x400000d2   Data           2  _uart.o(.data)
    UART2_RxHead                             0x400000d4   Data           2  _uart.o(.data)
    UART2_RxTail                             0x400000d6   Data           2  _uart.o(.data)
    UART3_RxHead                             0x400000d8   Data           2  _uart.o(.data)
    UART3_RxTail                             0x400000da   Data           2  _uart.o(.data)
    UART4_RxHead                             0x400000dc   Data           2  _uart.o(.data)
    UART4_RxTail                             0x400000de   Data           2  _uart.o(.data)
    CN_st_Data_18B20                         0x400000ec   Data           2  ds18b20.o(.data)
    X_BUF                                    0x400000f0   Data           4  huaiweigprs.o(.data)
    SizeofX_BUF                              0x400000f4   Data           2  huaiweigprs.o(.data)
    ModermCom                                0x400000f8   Data           4  huaiweigprs.o(.data)
    ptCN_st_Fun_GprsHard_Fac                 0x400000fc   Data           4  gprshard.o(.data)
    ptst_Fun_GprsHard_Fac                    0x40000100   Data           4  gprshard.o(.data)
    X_RAM                                    0x40000104   Data           4  gprshard.o(.data)
    CN_Point                                 0x4000012c   Data           1  oil.o(.data)
    CN_st_Sensor_ParList                     0x40000134   Data          60  sensor.o(.data)
    GpsSem                                   0x40000170   Data           4  gps.o(.data)
    CN_PowerState                            0x40000174   Data           1  gps.o(.data)
    CN_st_Sensor_State                       0x40000175   Data           3  gps.o(.data)
    CN_st_Sms_Order_Data                     0x400001e4   Data          22  smstzxy.o(.data)
    SendOrderNumber                          0x400001fa   Data           2  smstzxy.o(.data)
    ptst_Data_FileBuf                        0x40000200   Data           4  _rwfile.o(.data)
    DownFileSem                              0x4000020c   Data           4  _downfile.o(.data)
    GprsUseSem                               0x40000220   Data           4  gprs.o(.data)
    DateTimer                                0x40000228   Data           7  gprs.o(.data)
    ptst_Data_Gprs_Message                   0x40000230   Data           4  gprs.o(.data)
    ptst_Data_Gprs_Call                      0x40000234   Data           4  gprs.o(.data)
    ptst_Data_Gprs_TcpUdp                    0x40000238   Data          12  gprs.o(.data)
    CN_IPData                                0x40000244   Data           4  gprs.o(.data)
    CN_Ba_st_Affair_Gprs                     0x40000248   Data          60  gprs.o(.data)
    Photo_Q                                  0x40000294   Data           4  photo.o(.data)
    ptst_BoxData_Vid                         0x40000298   Data           4  photo.o(.data)
    CN_st_Photo_Property                     0x4000029c   Data           6  photo.o(.data)
    GpsAndMileageUseSem                      0x400002a4   Data           4  gpsandmileage.o(.data)
    ptst_FTP_Data_Save                       0x400002ac   Data           4  ftp.o(.data)
    ptst_FTP_Data_Temp                       0x400002b0   Data           4  ftp.o(.data)
    DownFileFd                               0x400002b4   Data           2  ftp.o(.data)
    FtpQbox                                  0x400002b8   Data           4  ftp.o(.data)
    FtpCtrlSem                               0x400002bc   Data           4  ftp.o(.data)
    RecData_Type                             0x400002c0   Data           1  ftp.o(.data)
    ptRecData_Type                           0x400002c4   Data           4  ftp.o(.data)
    FTPRecoderFd                             0x400002c8   Data           2  ftp.o(.data)
    TzvSem                                   0x400002dc   Data           4  tzv2.1.o(.data)
    CN_LessPar                               0x40000324   Data          40  appgprs.o(.data)
    CN_st_RunLen_Affair_fd                   0x4000035c   Data          16  space.o(.data)
    LogOnServerBox                           0x40000384   Data           4  logonserver.o(.data)
    ptst_BoxData_LogOnServer                 0x40000388   Data           4  logonserver.o(.data)
    CN_st_LogOnServer_OpenFd                 0x4000038c   Data           6  logonserver.o(.data)
    LogFlag                                  0x4000039a   Data           1  openandclose.o(.data)
    LogTimerfd                               0x400003c4   Data           1  openandclose.o(.data)
    UnLoaderTimerfd                          0x400003c5   Data           1  openandclose.o(.data)
    ptst_BoxData_UpData                      0x400003c8   Data           4  updatesoftware.o(.data)
    ptst_BoxData_UpData_Temp                 0x400003cc   Data           4  updatesoftware.o(.data)
    UpDataWaitTime                           0x400003d0   Data           2  updatesoftware.o(.data)
    CN_st_Fun_UpdateSoftWare                 0x400003d4   Data           4  updatesoftware.o(.data)
    UpDateSoftWare_Q                         0x400003d8   Data           4  updatesoftware.o(.data)
    DownLoaderOver                           0x400003dc   Data           4  updatesoftware.o(.data)
    DownLoaderState                          0x400003e0   Data           4  updatesoftware.o(.data)
    OSEventTbl                               0x400003e4   Data         540  os_core.o(.bss)
    OSFlagTbl                                0x40000600   Data          60  os_core.o(.bss)
    OSTaskStatStk                            0x4000063c   Data        2048  os_core.o(.bss)
    OSTaskIdleStk                            0x40000e3c   Data        2048  os_core.o(.bss)
    OSTCBPrioTbl                             0x4000163c   Data          68  os_core.o(.bss)
    OSTCBTbl                                 0x40001680   Data         884  os_core.o(.bss)
    OSMemTbl                                 0x400019f4   Data         100  os_core.o(.bss)
    OSQTbl                                   0x40001a58   Data         144  os_core.o(.bss)
    CN_st_Da_CanInfor                        0x40001ae8   Data         160  _can.o(.bss)
    CN_st_Da_CanInfor1                       0x40001b88   Data         160  _can.o(.bss)
    CN_st_Data_Adc                           0x40001c28   Data          96  adchard.o(.bss)
    CN_st_Less_Par_Oper                      0x40001c88   Data          96  less.o(.bss)
    CN_st_Less_State                         0x40001ce8   Data          18  less.o(.bss)
    CN_st_Less_Val                           0x40001cfc   Data          72  less.o(.bss)
    CN_VoVal                                 0x40001da8   Data          40  oil.o(.bss)
    CN_Gps_Buf                               0x40001fd8   Data         100  gps.o(.bss)
    CN_OpenPar                               0x40002114   Data          28  arealrm.o(.bss)
    CN_st_Sms_Data                           0x40002130   Data         568  smstzxy.o(.bss)
    AgreeBuf                                 0x40002368   Data         160  smstzxy.o(.bss)
    Phone                                    0x40002408   Data          15  smstzxy.o(.bss)
    CN_st_Data_FileBuf                       0x40002418   Data        1440  _rwfile.o(.bss)
    CN_st_DownFile_BufFd                     0x400029b8   Data          60  _downfile.o(.bss)
    DownFile_BUF                             0x400029f4   Data         512  _downfile.o(.bss)
    SMS_State                                0x40003870   Data          20  gprs.o(.bss)
    CN_st_Affair_Gprs                        0x40003884   Data          60  gprs.o(.bss)
    CN_st_Gsm_Net_Information                0x400038c0   Data          12  gprs.o(.bss)
    CN_st_Gsm_Net_Message                    0x400038cc   Data          15  gprs.o(.bss)
    CN_st_HardWare_SeeTCPData                0x400038dc   Data          20  gprs.o(.bss)
    CN_st_Data_IPNet                         0x400038f0   Data          56  gprs.o(.bss)
    CN_st_Control_Timer                      0x40003928   Data         120  timer.o(.bss)
    VidBox                                   0x400039a0   Data          40  photo.o(.bss)
    PhotoBuf                                 0x40003c20   Data         528  photo.o(.bss)
    CN_st_GpsAndMileage_OperData             0x40003e30   Data         112  gpsandmileage.o(.bss)
    CN_st_Buf_rwFlash                        0x40003ea0   Data         514  ftp.o(.bss)
    CN_st_Ftp_RunState                       0x400040a4   Data          12  ftp.o(.bss)
    CN_st_FTP_WorkState                      0x400040b0   Data          12  ftp.o(.bss)
    FTP_Stk                                  0x400040bc   Data        1424  ftp.o(.bss)
    MessegBox                                0x4000464c   Data          40  ftp.o(.bss)
    CN_st_NorFlash                           0x40004ed8   Data          24  _rwflashlgc.o(.bss)
    CN_st_File_fd                            0x40004ef0   Data          50  _filedata.o(.bss)
    App_CN_st_WorkFlow_Table                 0x40004f24   Data         272  _filedata.o(.bss)
    CN_Pu_st_st_AgreeOn_Dev_WritePar         0x40005834   Data          12  appsendagreeon.o(.bss)
    CN_st_BoxData_UpData                     0x40006240   Data         340  appgprs.o(.bss)
    LogOnServer_Stk                          0x40006424   Data        1536  logonserver.o(.bss)
    CN_st_BoxData_LogOnServer                0x40006a24   Data          20  logonserver.o(.bss)
    UpDataBox                                0x40006a4c   Data          16  updatesoftware.o(.bss)
    CN_st_FTP_WorkState_Now                  0x40006a5c   Data          12  updatesoftware.o(.bss)
    CN_st_FTP_Data                           0x40006a68   Data         328  updatesoftware.o(.bss)
    UpDateSoftWare_Stk                       0x40006bb0   Data        1024  updatesoftware.o(.bss)
    TaskStk                                  0x40006fb0   Data        1024  _init.o(.bss)
    _random_number_data                      0x400073b0   Data         228  rand.o(.bss)
    __libspace_start                         0x40007494   Data          96  libspace.o(.bss)
    __temporary_stack_top$libspace           0x400074f4   Data           0  libspace.o(.bss)
    StackUsr                                 0x40007700   Data           0  startup.o(STACK)



==============================================================================

Memory Map of the image

  Image Entry point : 0x000000b8

  Load Region LR_IROM1 (Base: 0x00000000, Size: 0x00041240, Max: 0x00080000, ABSOLUTE, COMPRESSED[0x00040f50])

    Execution Region ER_IROM1 (Exec base: 0x00000000, Load base: 0x00000000, Size: 0x00040e5c, Max: 0x00080000, ABSOLUTE)

    Exec Addr    Load Addr    Size         Type   Attr      Idx    E Section Name        Object

    0x00000000   0x00000000   0x000000b8   Code   RO           74    RESET               startup.o
    0x000000b8   0x000000b8   0x00000008   Code   RO         4886  * !!!main             c_t.l(__main.o)
    0x000000c0   0x000000c0   0x0000003c   Code   RO         5191    !!!scatter          c_t.l(__scatter.o)
    0x000000fc   0x000000fc   0x0000005c   Code   RO         5189    !!dczerorl2         c_t.l(__dczerorl2.o)
    0x00000158   0x00000158   0x0000002c   Code   RO         5193    !!handler_zi        c_t.l(__scatter_zi.o)
    0x00000184   0x00000184   0x00000008   Ven    RO         5107    .ARM.Collect$$libinit$$00000000  c_t.l(libinit.o)
    0x0000018c   0x0000018c   0x00000002   Code   RO         5107    .ARM.Collect$$libinit$$00000000  c_t.l(libinit.o)
    0x0000018e   0x0000018e   0x00000000   Code   RO         4956    .ARM.Collect$$libinit$$00000002  c_t.l(libinit2.o)
    0x0000018e   0x0000018e   0x00000000   Code   RO         4958    .ARM.Collect$$libinit$$00000004  c_t.l(libinit2.o)
    0x0000018e   0x0000018e   0x00000000   Code   RO         4961    .ARM.Collect$$libinit$$0000000A  c_t.l(libinit2.o)
    0x0000018e   0x0000018e   0x00000000   Code   RO         4963    .ARM.Collect$$libinit$$0000000C  c_t.l(libinit2.o)
    0x0000018e   0x0000018e   0x00000004   Code   RO         4964    .ARM.Collect$$libinit$$0000000D  c_t.l(libinit2.o)
    0x00000192   0x00000192   0x00000000   Code   RO         4965    .ARM.Collect$$libinit$$0000000E  c_t.l(libinit2.o)
    0x00000192   0x00000192   0x00000000   Code   RO         4968    .ARM.Collect$$libinit$$00000011  c_t.l(libinit2.o)
    0x00000192   0x00000192   0x00000000   Code   RO         4970    .ARM.Collect$$libinit$$00000013  c_t.l(libinit2.o)
    0x00000192   0x00000192   0x00000000   Code   RO         4972    .ARM.Collect$$libinit$$00000015  c_t.l(libinit2.o)
    0x00000192   0x00000192   0x00000000   Code   RO         4974    .ARM.Collect$$libinit$$00000017  c_t.l(libinit2.o)
    0x00000192   0x00000192   0x00000000   Code   RO         4976    .ARM.Collect$$libinit$$00000019  c_t.l(libinit2.o)
    0x00000192   0x00000192   0x00000000   Code   RO         4978    .ARM.Collect$$libinit$$0000001B  c_t.l(libinit2.o)
    0x00000192   0x00000192   0x00000000   Code   RO         4980    .ARM.Collect$$libinit$$0000001D  c_t.l(libinit2.o)
    0x00000192   0x00000192   0x00000000   Code   RO         4982    .ARM.Collect$$libinit$$0000001F  c_t.l(libinit2.o)
    0x00000192   0x00000192   0x00000000   Code   RO         4984    .ARM.Collect$$libinit$$00000021  c_t.l(libinit2.o)
    0x00000192   0x00000192   0x00000000   Code   RO         4986    .ARM.Collect$$libinit$$00000023  c_t.l(libinit2.o)
    0x00000192   0x00000192   0x00000000   Code   RO         4988    .ARM.Collect$$libinit$$00000025  c_t.l(libinit2.o)
    0x00000192   0x00000192   0x00000000   Code   RO         4992    .ARM.Collect$$libinit$$0000002C  c_t.l(libinit2.o)
    0x00000192   0x00000192   0x00000000   Code   RO         4994    .ARM.Collect$$libinit$$0000002E  c_t.l(libinit2.o)
    0x00000192   0x00000192   0x00000000   Code   RO         4996    .ARM.Collect$$libinit$$00000030  c_t.l(libinit2.o)
    0x00000192   0x00000192   0x00000000   Code   RO         4998    .ARM.Collect$$libinit$$00000032  c_t.l(libinit2.o)
    0x00000192   0x00000192   0x0000000c   Code   RO         4999    .ARM.Collect$$libinit$$00000033  c_t.l(libinit2.o)
    0x0000019e   0x0000019e   0x00000002   PAD
    0x000001a0   0x000001a0   0x00000008   Ven    RO         5156    .ARM.Collect$$libshutdown$$00000000  c_t.l(libshutdown.o)
    0x000001a8   0x000001a8   0x00000004   Code   RO         5156    .ARM.Collect$$libshutdown$$00000000  c_t.l(libshutdown.o)
    0x000001ac   0x000001ac   0x00000000   Code   RO         5172    .ARM.Collect$$libshutdown$$00000002  c_t.l(libshutdown2.o)
    0x000001ac   0x000001ac   0x00000000   Code   RO         5174    .ARM.Collect$$libshutdown$$00000004  c_t.l(libshutdown2.o)
    0x000001ac   0x000001ac   0x00000000   Code   RO         5177    .ARM.Collect$$libshutdown$$00000007  c_t.l(libshutdown2.o)
    0x000001ac   0x000001ac   0x00000000   Code   RO         5180    .ARM.Collect$$libshutdown$$0000000A  c_t.l(libshutdown2.o)
    0x000001ac   0x000001ac   0x00000000   Code   RO         5182    .ARM.Collect$$libshutdown$$0000000C  c_t.l(libshutdown2.o)
    0x000001ac   0x000001ac   0x00000000   Code   RO         5185    .ARM.Collect$$libshutdown$$0000000F  c_t.l(libshutdown2.o)
    0x000001ac   0x000001ac   0x00000006   Code   RO         5186    .ARM.Collect$$libshutdown$$00000010  c_t.l(libshutdown2.o)
    0x000001b2   0x000001b2   0x00000002   PAD
    0x000001b4   0x000001b4   0x00000000   Code   RO         4946    .ARM.Collect$$rtentry$$00000000  c_t.l(__rtentry.o)
    0x000001b4   0x000001b4   0x00000000   Code   RO         5044    .ARM.Collect$$rtentry$$00000002  c_t.l(__rtentry2.o)
    0x000001b4   0x000001b4   0x00000008   Code   RO         5056    .ARM.Collect$$rtentry$$00000004  c_t.l(__rtentry4.o)
    0x000001bc   0x000001bc   0x00000000   Code   RO         5046    .ARM.Collect$$rtentry$$00000009  c_t.l(__rtentry2.o)
    0x000001bc   0x000001bc   0x00000004   Code   RO         5047    .ARM.Collect$$rtentry$$0000000A  c_t.l(__rtentry2.o)
    0x000001c0   0x000001c0   0x00000000   Code   RO         5049    .ARM.Collect$$rtentry$$0000000C  c_t.l(__rtentry2.o)
    0x000001c0   0x000001c0   0x00000028   Code   RO         5050    .ARM.Collect$$rtentry$$0000000D  c_t.l(__rtentry2.o)
    0x000001e8   0x000001e8   0x00000004   Ven    RO         5112    .ARM.Collect$$rtexit$$00000000  c_t.l(rtexit.o)
    0x000001ec   0x000001ec   0x00000004   Code   RO         5112    .ARM.Collect$$rtexit$$00000000  c_t.l(rtexit.o)
    0x000001f0   0x000001f0   0x00000000   Code   RO         5134    .ARM.Collect$$rtexit$$00000002  c_t.l(rtexit2.o)
    0x000001f0   0x000001f0   0x00000004   Code   RO         5135    .ARM.Collect$$rtexit$$00000003  c_t.l(rtexit2.o)
    0x000001f4   0x000001f4   0x00000008   Code   RO         5136    .ARM.Collect$$rtexit$$00000004  c_t.l(rtexit2.o)
    0x000001fc   0x000001fc   0x000004e0   Code   RO            1    .text               target.o
    0x000006dc   0x000006dc   0x00000024   Code   RO           75    .text               startup.o
    0x00000700   0x00000700   0x00000298   Code   RO           80    .text               os_cpu_c.o
    0x00000998   0x00000998   0x00000b98   Code   RO          124    .text               os_core.o
    0x00001530   0x00001530   0x00000b50   Code   RO          154    .text               os_flag.o
    0x00002080   0x00002080   0x0000054c   Code   RO          170    .text               os_mbox.o
    0x000025cc   0x000025cc   0x000002dc   Code   RO          182    .text               os_mem.o
    0x000028a8   0x000028a8   0x000008c4   Code   RO          206    .text               os_q.o
    0x0000316c   0x0000316c   0x00000464   Code   RO          218    .text               os_sem.o
    0x000035d0   0x000035d0   0x0000099c   Code   RO          230    .text               os_task.o
    0x00003f6c   0x00003f6c   0x0000028c   Code   RO          242    .text               os_time.o
    0x000041f8   0x000041f8   0x000004d8   Code   RO          254    .text               _arithmetic.o
    0x000046d0   0x000046d0   0x00001e5c   Code   RO          300    .text               _ascnumber.o
    0x0000652c   0x0000652c   0x00000ae0   Code   RO          368    .text               _date.o
    0x0000700c   0x0000700c   0x000008b0   Code   RO          421    .text               _can.o
    0x000078bc   0x000078bc   0x00000324   Code   RO          469    .text               _rtc.o
    0x00007be0   0x00007be0   0x00000578   Code   RO          530    .text               _spi.o
    0x00008158   0x00008158   0x00001eec   Code   RO          577    .text               _uart.o
    0x0000a044   0x0000a044   0x00000854   Code   RO          626    .text               adchard.o
    0x0000a898   0x0000a898   0x00000834   Code   RO          678    .text               ds18b20.o
    0x0000b0cc   0x0000b0cc   0x00002da4   Code   RO          750    .text               huaiweigprs.o
    0x0000de70   0x0000de70   0x000009cc   Code   RO          805    .text               gprshard.o
    0x0000e83c   0x0000e83c   0x00000fcc   Code   RO          885    .text               less.o
    0x0000f808   0x0000f808   0x00000370   Code   RO          971    .text               acc.o
    0x0000fb78   0x0000fb78   0x000004b0   Code   RO         1042    .text               oil.o
    0x00010028   0x00010028   0x000007b8   Code   RO         1118    .text               sensor.o
    0x000107e0   0x000107e0   0x00000fbc   Code   RO         1235    .text               gps.o
    0x0001179c   0x0001179c   0x00001324   Code   RO         1315    .text               display.o
    0x00012ac0   0x00012ac0   0x000005f4   Code   RO         1440    .text               temperture.o
    0x000130b4   0x000130b4   0x00000a94   Code   RO         1530    .text               mileage.o
    0x00013b48   0x00013b48   0x00000274   Code   RO         1620    .text               gprstzxy.o
    0x00013dbc   0x00013dbc   0x00000444   Code   RO         1691    .text               uarttzxy.o
    0x00014200   0x00014200   0x0000097c   Code   RO         1762    .text               arealrm.o
    0x00014b7c   0x00014b7c   0x00000350   Code   RO         1848    .text               help.o
    0x00014ecc   0x00014ecc   0x00000320   Code   RO         1919    .text               onoroff.o
    0x000151ec   0x000151ec   0x00000224   Code   RO         1990    .text               adc1.o
    0x00015410   0x00015410   0x00000740   Code   RO         2058    .text               smstzxy.o
    0x00015b50   0x00015b50   0x000026dc   Code   RO         2151    .text               _rwfile.o
    0x0001822c   0x0001822c   0x00000b4c   Code   RO         2220    .text               _downfile.o
    0x00018d78   0x00018d78   0x000003a0   Code   RO         2267    .text               sensorcontr.o
    0x00019118   0x00019118   0x00002f6c   Code   RO         2343    .text               gprs.o
    0x0001c084   0x0001c084   0x000007f0   Code   RO         2451    .text               timer.o
    0x0001c874   0x0001c874   0x00000738   Code   RO         2537    .text               photo.o
    0x0001cfac   0x0001cfac   0x000004c0   Code   RO         2631    .text               gpsandmileage.o
    0x0001d46c   0x0001d46c   0x00001550   Code   RO         2714    .text               ftp.o
    0x0001e9bc   0x0001e9bc   0x000039b8   Code   RO         2813    .text               tz_agreen.o
    0x00022374   0x00022374   0x00006980   Code   RO         2900    .text               tz_send.o
    0x00028cf4   0x00028cf4   0x00000ca0   Code   RO         2988    .text               tzv2.1.o
    0x00029994   0x00029994   0x00000dcc   Code   RO         3096    .text               _nandflash512.o
    0x0002a760   0x0002a760   0x00000828   Code   RO         3142    .text               _spiflash512.o
    0x0002af88   0x0002af88   0x000006c4   Code   RO         3195    .text               _flash.o
    0x0002b64c   0x0002b64c   0x0000093c   Code   RO         3250    .text               _rwflashlgc.o
    0x0002bf88   0x0002bf88   0x0000034c   Code   RO         3276    .text               _filedata.o
    0x0002c2d4   0x0002c2d4   0x000012f0   Code   RO         3390    .text               takedata.o
    0x0002d5c4   0x0002d5c4   0x00004344   Code   RO         3422    .text               appsendagreeon.o
    0x00031908   0x00031908   0x000036ac   Code   RO         3561    .text               appgprs.o
    0x00034fb4   0x00034fb4   0x00000494   Code   RO         3722    .text               opensensor.o
    0x00035448   0x00035448   0x00000bb4   Code   RO         3852    .text               accoper.o
    0x00035ffc   0x00035ffc   0x000007e4   Code   RO         3998    .text               appagreedatasensor.o
    0x000367e0   0x000367e0   0x0000089c   Code   RO         4173    .text               space.o
    0x0003707c   0x0003707c   0x00000384   Code   RO         4199    .text               jugeoper.o
    0x00037400   0x00037400   0x00000428   Code   RO         4216    .text               warningupate.o
    0x00037828   0x00037828   0x00000e9c   Code   RO         4241    .text               displayoper.o
    0x000386c4   0x000386c4   0x00000fe8   Code   RO         4286    .text               messageandphone.o
    0x000396ac   0x000396ac   0x00000e98   Code   RO         4304    .text               logonserver.o
    0x0003a544   0x0003a544   0x00000598   Code   RO         4464    .text               openandclose.o
    0x0003aadc   0x0003aadc   0x00000424   Code   RO         4611    .text               updatesoftware.o
    0x0003af00   0x0003af00   0x00000504   Code   RO         4666    .text               _init.o
    0x0003b404   0x0003b404   0x00000008   Ven    RO         4854    .text               c_t.l(rand.o)
    0x0003b40c   0x0003b40c   0x00000040   Code   RO         4854    .text               c_t.l(rand.o)
    0x0003b44c   0x0003b44c   0x00000008   Ven    RO         4858    .text               c_t.l(strlen.o)
    0x0003b454   0x0003b454   0x00000044   Code   RO         4858    .text               c_t.l(strlen.o)
    0x0003b498   0x0003b498   0x00000008   Ven    RO         4860    .text               c_t.l(memchr.o)
    0x0003b4a0   0x0003b4a0   0x00000018   Code   RO         4860    .text               c_t.l(memchr.o)
    0x0003b4b8   0x0003b4b8   0x00000064   Code   RO         4862    .text               c_t.l(rt_memcpy_w.o)
    0x0003b51c   0x0003b51c   0x00000010   Code   RO         4864    .text               c_t.l(aeabi_memset.o)
    0x0003b52c   0x0003b52c   0x00000054   Code   RO         4866    .text               c_t.l(rt_memclr_w.o)
    0x0003b580   0x0003b580   0x00000180   Code   RO         4868    .text               c_t.l(aeabi_sdiv.o)
    0x0003b700   0x0003b700   0x00000006   Code   RO         4884    .text               c_t.l(heapauxi.o)
    0x0003b706   0x0003b706   0x00000002   PAD
    0x0003b708   0x0003b708   0x00000008   Ven    RO         4951    .text               c_t.l(_rserrno.o)
    0x0003b710   0x0003b710   0x0000001a   Code   RO         4951    .text               c_t.l(_rserrno.o)
    0x0003b72a   0x0003b72a   0x00000002   PAD
    0x0003b72c   0x0003b72c   0x00000040   Code   RO         4953    .text               c_t.l(rt_memclr.o)
    0x0003b76c   0x0003b76c   0x00000004   Ven    RO         5063    .text               c_t.l(rt_errno_addr_intlibspace.o)
    0x0003b770   0x0003b770   0x0000000c   Code   RO         5063    .text               c_t.l(rt_errno_addr_intlibspace.o)
    0x0003b77c   0x0003b77c   0x0000000c   Code   RO         5087    .text               c_t.l(libspace.o)
    0x0003b788   0x0003b788   0x00000060   Code   RO         5090    .text               c_t.l(sys_stackheap_outer.o)
    0x0003b7e8   0x0003b7e8   0x00000014   Code   RO         5092    .text               c_t.l(exit.o)
    0x0003b7fc   0x0003b7fc   0x00000008   Ven    RO         5128    .text               c_t.l(sys_exit.o)
    0x0003b804   0x0003b804   0x0000000c   Code   RO         5128    .text               c_t.l(sys_exit.o)
    0x0003b810   0x0003b810   0x00000004   Code   RO         5130    .text               c_t.l(use_no_semi.o)
    0x0003b814   0x0003b814   0x00000000   Code   RO         5132    .text               c_t.l(indicate_semi.o)
    0x0003b814   0x0003b814   0x00000024   Code   RO         4869    .text_udiv          c_t.l(aeabi_sdiv.o)
    0x0003b838   0x0003b838   0x000004f0   Code   RO           68    IRQ                 irq.o
    0x0003bd28   0x0003bd28   0x00000030   Code   RO         5083    i.__ARM_fpclassify  m_ts.l(fpclassify.o)
    0x0003bd58   0x0003bd58   0x00000514   Code   RO         5032    i.__ieee754_rem_pio2  m_ts.l(rred.o)
    0x0003c26c   0x0003c26c   0x0000019c   Code   RO         5015    i.__kernel_cos      m_ts.l(cos_i.o)
    0x0003c408   0x0003c408   0x00000100   Code   RO         5085    i.__kernel_poly     m_ts.l(poly.o)
    0x0003c508   0x0003c508   0x0000017c   Code   RO         5037    i.__kernel_sin      m_ts.l(sin_i.o)
    0x0003c684   0x0003c684   0x00000008   Code   RO         5019    i.__mathlib_dbl_infnan  m_ts.l(dunder.o)
    0x0003c68c   0x0003c68c   0x00000014   Code   RO         5021    i.__mathlib_dbl_invalid  m_ts.l(dunder.o)
    0x0003c6a0   0x0003c6a0   0x00000014   Code   RO         5024    i.__mathlib_dbl_underflow  m_ts.l(dunder.o)
    0x0003c6b4   0x0003c6b4   0x000000f0   Code   RO         4923    i.cos               m_ts.l(cos.o)
    0x0003c7a4   0x0003c7a4   0x000000f8   Code   RO         4931    i.sin               m_ts.l(sin.o)
    0x0003c89c   0x0003c89c   0x00000070   Code   RO         4939    i.sqrt              m_ts.l(sqrt.o)
    0x0003c90c   0x0003c90c   0x00000110   Code   RO          120    subr                os_cpu_a.o
    0x0003ca1c   0x0003ca1c   0x0000006c   Code   RO         4888    x$fpl$d2f           fz_ts.l(d2f.o)
    0x0003ca88   0x0003ca88   0x00000154   Code   RO         4890    x$fpl$dadd          fz_ts.l(daddsub_noclz.o)
    0x0003cbdc   0x0003cbdc   0x00000010   Code   RO         5108    x$fpl$dcheck1       fz_ts.l(dcheck1.o)
    0x0003cbec   0x0003cbec   0x000002e0   Code   RO         4897    x$fpl$ddiv          fz_ts.l(ddiv.o)
    0x0003cecc   0x0003cecc   0x00000070   Code   RO         5069    x$fpl$dfix          fz_ts.l(dfix.o)
    0x0003cf3c   0x0003cf3c   0x00000058   Code   RO         5074    x$fpl$dflt          fz_ts.l(dflt_noclz.o)
    0x0003cf94   0x0003cf94   0x0000000c   Code   RO         5073    x$fpl$dfltu         fz_ts.l(dflt_noclz.o)
    0x0003cfa0   0x0003cfa0   0x00000180   Code   RO         4900    x$fpl$dmul          fz_ts.l(dmul.o)
    0x0003d120   0x0003d120   0x000000c0   Code   RO         5002    x$fpl$dnaninf       fz_ts.l(dnaninf.o)
    0x0003d1e0   0x0003d1e0   0x00000010   Code   RO         5004    x$fpl$dretinf       fz_ts.l(dretinf.o)
    0x0003d1f0   0x0003d1f0   0x00000018   Code   RO         4891    x$fpl$drsb          fz_ts.l(daddsub_noclz.o)
    0x0003d208   0x0003d208   0x00000208   Code   RO         5006    x$fpl$dsqrt         fz_ts.l(dsqrt_noumaal.o)
    0x0003d410   0x0003d410   0x00000244   Code   RO         4892    x$fpl$dsub          fz_ts.l(daddsub_noclz.o)
    0x0003d654   0x0003d654   0x00000064   Code   RO         4902    x$fpl$f2d           fz_ts.l(f2d.o)
    0x0003d6b8   0x0003d6b8   0x000000c4   Code   RO         4904    x$fpl$fadd          fz_ts.l(faddsub_noclz.o)
    0x0003d77c   0x0003d77c   0x0000001c   Code   RO         5077    x$fpl$fcmpinf       fz_ts.l(fcmpi.o)
    0x0003d798   0x0003d798   0x00000054   Code   RO         4910    x$fpl$ffixu         fz_ts.l(ffixu.o)
    0x0003d7ec   0x0003d7ec   0x0000005c   Code   RO         4915    x$fpl$fflt          fz_ts.l(fflt_noclz.o)
    0x0003d848   0x0003d848   0x00000008   Code   RO         4914    x$fpl$ffltu         fz_ts.l(fflt_noclz.o)
    0x0003d850   0x0003d850   0x00000084   Code   RO         5008    x$fpl$fleqf         fz_ts.l(fleqf.o)
    0x0003d8d4   0x0003d8d4   0x00000100   Code   RO         4918    x$fpl$fmul          fz_ts.l(fmul.o)
    0x0003d9d4   0x0003d9d4   0x000000a8   Code   RO         5010    x$fpl$fnaninf       fz_ts.l(fnaninf.o)
    0x0003da7c   0x0003da7c   0x00000010   Code   RO         5012    x$fpl$fretinf       fz_ts.l(fretinf.o)
    0x0003da8c   0x0003da8c   0x0000007c   Code   RO         4920    x$fpl$frleqf        fz_ts.l(frleqf.o)
    0x0003db08   0x0003db08   0x00000130   Code   RO         4906    x$fpl$fsub          fz_ts.l(faddsub_noclz.o)
    0x0003dc38   0x0003dc38   0x00000074   Code   RO         5126    x$fpl$retnan        fz_ts.l(retnan.o)
    0x0003dcac   0x0003dcac   0x00000068   Code   RO         5081    x$fpl$scalbn        fz_ts.l(scalbn.o)
    0x0003dd14   0x0003dd14   0x0000003c   Code   RO         5148    x$fpl$trapveneer    fz_ts.l(trapv.o)
    0x0003dd50   0x0003dd50   0x00000000   Code   RO         5014    x$fpl$usenofp       fz_ts.l(usenofp.o)
    0x0003dd50   0x0003dd50   0x00000108   Data   RO          126    .constdata          os_core.o
    0x0003de58   0x0003de58   0x0000012c   Data   RO          255    .constdata          _arithmetic.o
    0x0003df84   0x0003df84   0x000000f2   Data   RO          301    .constdata          _ascnumber.o
    0x0003e076   0x0003e076   0x00000002   PAD
    0x0003e078   0x0003e078   0x00000010   Data   RO          369    .constdata          _date.o
    0x0003e088   0x0003e088   0x0000000c   Data   RO          470    .constdata          _rtc.o
    0x0003e094   0x0003e094   0x00000024   Data   RO          531    .constdata          _spi.o
    0x0003e0b8   0x0003e0b8   0x00000014   Data   RO          579    .constdata          _uart.o
    0x0003e0cc   0x0003e0cc   0x00000034   Data   RO          628    .constdata          adchard.o
    0x0003e100   0x0003e100   0x00000114   Data   RO          679    .constdata          ds18b20.o
    0x0003e214   0x0003e214   0x0000069f   Data   RO          751    .constdata          huaiweigprs.o
    0x0003e8b3   0x0003e8b3   0x00000001   PAD
    0x0003e8b4   0x0003e8b4   0x000000d0   Data   RO          806    .constdata          gprshard.o
    0x0003e984   0x0003e984   0x00000078   Data   RO          887    .constdata          less.o
    0x0003e9fc   0x0003e9fc   0x00000024   Data   RO          972    .constdata          acc.o
    0x0003ea20   0x0003ea20   0x00000030   Data   RO         1044    .constdata          oil.o
    0x0003ea50   0x0003ea50   0x00000038   Data   RO         1120    .constdata          sensor.o
    0x0003ea88   0x0003ea88   0x00000070   Data   RO         1237    .constdata          gps.o
    0x0003eaf8   0x0003eaf8   0x000001b4   Data   RO         1316    .constdata          display.o
    0x0003ecac   0x0003ecac   0x0000002b   Data   RO         1442    .constdata          temperture.o
    0x0003ecd7   0x0003ecd7   0x00000001   PAD
    0x0003ecd8   0x0003ecd8   0x00000024   Data   RO         1532    .constdata          mileage.o
    0x0003ecfc   0x0003ecfc   0x00000028   Data   RO         1621    .constdata          gprstzxy.o
    0x0003ed24   0x0003ed24   0x00000030   Data   RO         1692    .constdata          uarttzxy.o
    0x0003ed54   0x0003ed54   0x00000028   Data   RO         1764    .constdata          arealrm.o
    0x0003ed7c   0x0003ed7c   0x00000024   Data   RO         1849    .constdata          help.o
    0x0003eda0   0x0003eda0   0x00000024   Data   RO         1920    .constdata          onoroff.o
    0x0003edc4   0x0003edc4   0x00000030   Data   RO         1991    .constdata          adc1.o
    0x0003edf4   0x0003edf4   0x00000024   Data   RO         2060    .constdata          smstzxy.o
    0x0003ee18   0x0003ee18   0x0000003c   Data   RO         2153    .constdata          _rwfile.o
    0x0003ee54   0x0003ee54   0x00000028   Data   RO         2222    .constdata          _downfile.o
    0x0003ee7c   0x0003ee7c   0x00000064   Data   RO         2269    .constdata          sensorcontr.o
    0x0003eee0   0x0003eee0   0x00000078   Data   RO         2345    .constdata          gprs.o
    0x0003ef58   0x0003ef58   0x00000024   Data   RO         2453    .constdata          timer.o
    0x0003ef7c   0x0003ef7c   0x00000014   Data   RO         2539    .constdata          photo.o
    0x0003ef90   0x0003ef90   0x00000010   Data   RO         2633    .constdata          gpsandmileage.o
    0x0003efa0   0x0003efa0   0x0000003c   Data   RO         2716    .constdata          ftp.o
    0x0003efdc   0x0003efdc   0x00000164   Data   RO         2814    .constdata          tz_agreen.o
    0x0003f140   0x0003f140   0x000000c4   Data   RO         2901    .constdata          tz_send.o
    0x0003f204   0x0003f204   0x00000234   Data   RO         2990    .constdata          tzv2.1.o
    0x0003f438   0x0003f438   0x00000020   Data   RO         3097    .constdata          _nandflash512.o
    0x0003f458   0x0003f458   0x00000020   Data   RO         3143    .constdata          _spiflash512.o
    0x0003f478   0x0003f478   0x000000ac   Data   RO         3196    .constdata          _flash.o
    0x0003f524   0x0003f524   0x00000010   Data   RO         3252    .constdata          _rwflashlgc.o
    0x0003f534   0x0003f534   0x000007dc   Data   RO         3278    .constdata          _filedata.o
    0x0003fd10   0x0003fd10   0x00000040   Data   RO         3391    .constdata          takedata.o
    0x0003fd50   0x0003fd50   0x00000178   Data   RO         3424    .constdata          appsendagreeon.o
    0x0003fec8   0x0003fec8   0x0000016a   Data   RO         3563    .constdata          appgprs.o
    0x00040032   0x00040032   0x00000002   PAD
    0x00040034   0x00040034   0x00000124   Data   RO         3723    .constdata          opensensor.o
    0x00040158   0x00040158   0x000002a4   Data   RO         3854    .constdata          accoper.o
    0x000403fc   0x000403fc   0x00000104   Data   RO         3999    .constdata          appagreedatasensor.o
    0x00040500   0x00040500   0x00000010   Data   RO         4174    .constdata          space.o
    0x00040510   0x00040510   0x000001d8   Data   RO         4200    .constdata          jugeoper.o
    0x000406e8   0x000406e8   0x0000005c   Data   RO         4217    .constdata          warningupate.o
    0x00040744   0x00040744   0x000000f0   Data   RO         4242    .constdata          displayoper.o
    0x00040834   0x00040834   0x00000028   Data   RO         4287    .constdata          messageandphone.o
    0x0004085c   0x0004085c   0x00000038   Data   RO         4306    .constdata          logonserver.o
    0x00040894   0x00040894   0x0000007c   Data   RO         4466    .constdata          openandclose.o
    0x00040910   0x00040910   0x00000030   Data   RO         5016    .constdata          m_ts.l(cos_i.o)
    0x00040940   0x00040940   0x000000c8   Data   RO         5034    .constdata          m_ts.l(rred.o)
    0x00040a08   0x00040a08   0x00000028   Data   RO         5038    .constdata          m_ts.l(sin_i.o)
    0x00040a30   0x00040a30   0x00000279   Data   RO          752    .conststring        huaiweigprs.o
    0x00040ca9   0x00040ca9   0x00000003   PAD
    0x00040cac   0x00040cac   0x00000003   Data   RO          807    .conststring        gprshard.o
    0x00040caf   0x00040caf   0x00000001   PAD
    0x00040cb0   0x00040cb0   0x0000003f   Data   RO         1238    .conststring        gps.o
    0x00040cef   0x00040cef   0x00000001   PAD
    0x00040cf0   0x00040cf0   0x00000041   Data   RO         2717    .conststring        ftp.o
    0x00040d31   0x00040d31   0x00000003   PAD
    0x00040d34   0x00040d34   0x00000037   Data   RO         3197    .conststring        _flash.o
    0x00040d6b   0x00040d6b   0x00000001   PAD
    0x00040d6c   0x00040d6c   0x000000cd   Data   RO         3279    .conststring        _filedata.o
    0x00040e39   0x00040e39   0x00000003   PAD
    0x00040e3c   0x00040e3c   0x00000020   Data   RO         5187    Region$$Table       anon$$obj.o


    Execution Region RW_IRAM1 (Exec base: 0x40000000, Load base: 0x00040e5c, Size: 0x000079a0, Max: 0x00008000, ABSOLUTE, COMPRESSED[0x000000f4])

    Exec Addr    Load Addr    Size         Type   Attr      Idx    E Section Name        Object

    0x40000000   COMPRESSED   0x00000004   Data   RW           81    .data               os_cpu_c.o
    0x40000004   COMPRESSED   0x00000044   Data   RW          127    .data               os_core.o
    0x40000048   COMPRESSED   0x00000004   Data   RW          302    .data               _ascnumber.o
    0x4000004c   COMPRESSED   0x0000002c   Data   RW          423    .data               _can.o
    0x40000078   COMPRESSED   0x00000004   Data   RW          471    .data               _rtc.o
    0x4000007c   COMPRESSED   0x00000005   Data   RW          532    .data               _spi.o
    0x40000081   COMPRESSED   0x00000003   PAD
    0x40000084   COMPRESSED   0x0000005c   Data   RW          580    .data               _uart.o
    0x400000e0   COMPRESSED   0x00000004   Data   RW          629    .data               adchard.o
    0x400000e4   COMPRESSED   0x0000000a   Data   RW          680    .data               ds18b20.o
    0x400000ee   COMPRESSED   0x00000002   PAD
    0x400000f0   COMPRESSED   0x0000000c   Data   RW          753    .data               huaiweigprs.o
    0x400000fc   COMPRESSED   0x0000000c   Data   RW          808    .data               gprshard.o
    0x40000108   COMPRESSED   0x0000000c   Data   RW          888    .data               less.o
    0x40000114   COMPRESSED   0x0000000c   Data   RW          973    .data               acc.o
    0x40000120   COMPRESSED   0x0000000d   Data   RW         1045    .data               oil.o
    0x4000012d   COMPRESSED   0x00000003   PAD
    0x40000130   COMPRESSED   0x00000040   Data   RW         1121    .data               sensor.o
    0x40000170   COMPRESSED   0x00000008   Data   RW         1239    .data               gps.o
    0x40000178   COMPRESSED   0x00000005   Data   RW         1317    .data               display.o
    0x4000017d   COMPRESSED   0x00000003   PAD
    0x40000180   COMPRESSED   0x00000016   Data   RW         1443    .data               temperture.o
    0x40000196   COMPRESSED   0x00000002   PAD
    0x40000198   COMPRESSED   0x0000000d   Data   RW         1533    .data               mileage.o
    0x400001a5   COMPRESSED   0x00000003   PAD
    0x400001a8   COMPRESSED   0x00000008   Data   RW         1622    .data               gprstzxy.o
    0x400001b0   COMPRESSED   0x00000008   Data   RW         1693    .data               uarttzxy.o
    0x400001b8   COMPRESSED   0x0000000b   Data   RW         1765    .data               arealrm.o
    0x400001c3   COMPRESSED   0x00000001   PAD
    0x400001c4   COMPRESSED   0x0000000c   Data   RW         1850    .data               help.o
    0x400001d0   COMPRESSED   0x00000005   Data   RW         1921    .data               onoroff.o
    0x400001d5   COMPRESSED   0x00000003   PAD
    0x400001d8   COMPRESSED   0x00000005   Data   RW         1992    .data               adc1.o
    0x400001dd   COMPRESSED   0x00000003   PAD
    0x400001e0   COMPRESSED   0x00000020   Data   RW         2061    .data               smstzxy.o
    0x40000200   COMPRESSED   0x0000000c   Data   RW         2154    .data               _rwfile.o
    0x4000020c   COMPRESSED   0x00000004   Data   RW         2223    .data               _downfile.o
    0x40000210   COMPRESSED   0x00000010   Data   RW         2270    .data               sensorcontr.o
    0x40000220   COMPRESSED   0x00000064   Data   RW         2346    .data               gprs.o
    0x40000284   COMPRESSED   0x0000000f   Data   RW         2454    .data               timer.o
    0x40000293   COMPRESSED   0x00000001   PAD
    0x40000294   COMPRESSED   0x0000000e   Data   RW         2540    .data               photo.o
    0x400002a2   COMPRESSED   0x00000002   PAD
    0x400002a4   COMPRESSED   0x00000008   Data   RW         2634    .data               gpsandmileage.o
    0x400002ac   COMPRESSED   0x00000024   Data   RW         2718    .data               ftp.o
    0x400002d0   COMPRESSED   0x00000004   Data   RW         2815    .data               tz_agreen.o
    0x400002d4   COMPRESSED   0x00000016   Data   RW         2991    .data               tzv2.1.o
    0x400002ea   COMPRESSED   0x00000002   PAD
    0x400002ec   COMPRESSED   0x00000004   Data   RW         3253    .data               _rwflashlgc.o
    0x400002f0   COMPRESSED   0x00000034   Data   RW         3425    .data               appsendagreeon.o
    0x40000324   COMPRESSED   0x00000028   Data   RW         3564    .data               appgprs.o
    0x4000034c   COMPRESSED   0x00000002   Data   RW         3855    .data               accoper.o
    0x4000034e   COMPRESSED   0x00000002   PAD
    0x40000350   COMPRESSED   0x0000000c   Data   RW         4000    .data               appagreedatasensor.o
    0x4000035c   COMPRESSED   0x00000020   Data   RW         4175    .data               space.o
    0x4000037c   COMPRESSED   0x00000004   Data   RW         4218    .data               warningupate.o
    0x40000380   COMPRESSED   0x00000001   Data   RW         4243    .data               displayoper.o
    0x40000381   COMPRESSED   0x00000001   Data   RW         4288    .data               messageandphone.o
    0x40000382   COMPRESSED   0x00000002   PAD
    0x40000384   COMPRESSED   0x00000011   Data   RW         4307    .data               logonserver.o
    0x40000395   COMPRESSED   0x00000003   PAD
    0x40000398   COMPRESSED   0x0000002e   Data   RW         4467    .data               openandclose.o
    0x400003c6   COMPRESSED   0x00000002   PAD
    0x400003c8   COMPRESSED   0x0000001c   Data   RW         4613    .data               updatesoftware.o
    0x400003e4        -       0x00001704   Zero   RW          125    .bss                os_core.o
    0x40001ae8        -       0x00000140   Zero   RW          422    .bss                _can.o
    0x40001c28        -       0x00000060   Zero   RW          627    .bss                adchard.o
    0x40001c88        -       0x00000120   Zero   RW          886    .bss                less.o
    0x40001da8        -       0x00000028   Zero   RW         1043    .bss                oil.o
    0x40001dd0        -       0x00000208   Zero   RW         1119    .bss                sensor.o
    0x40001fd8        -       0x00000064   Zero   RW         1236    .bss                gps.o
    0x4000203c        -       0x00000020   Zero   RW         1441    .bss                temperture.o
    0x4000205c        -       0x00000068   Zero   RW         1531    .bss                mileage.o
    0x400020c4        -       0x0000006c   Zero   RW         1763    .bss                arealrm.o
    0x40002130        -       0x000002e7   Zero   RW         2059    .bss                smstzxy.o
    0x40002417   COMPRESSED   0x00000001   PAD
    0x40002418        -       0x000005a0   Zero   RW         2152    .bss                _rwfile.o
    0x400029b8        -       0x0000023c   Zero   RW         2221    .bss                _downfile.o
    0x40002bf4        -       0x00000c7a   Zero   RW         2268    .bss                sensorcontr.o
    0x4000386e   COMPRESSED   0x00000002   PAD
    0x40003870        -       0x000000b8   Zero   RW         2344    .bss                gprs.o
    0x40003928        -       0x00000078   Zero   RW         2452    .bss                timer.o
    0x400039a0        -       0x00000490   Zero   RW         2538    .bss                photo.o
    0x40003e30        -       0x00000070   Zero   RW         2632    .bss                gpsandmileage.o
    0x40003ea0        -       0x000007d4   Zero   RW         2715    .bss                ftp.o
    0x40004674        -       0x00000864   Zero   RW         2989    .bss                tzv2.1.o
    0x40004ed8        -       0x00000018   Zero   RW         3251    .bss                _rwflashlgc.o
    0x40004ef0        -       0x00000144   Zero   RW         3277    .bss                _filedata.o
    0x40005034        -       0x0000120c   Zero   RW         3423    .bss                appsendagreeon.o
    0x40006240        -       0x00000154   Zero   RW         3562    .bss                appgprs.o
    0x40006394        -       0x00000090   Zero   RW         3853    .bss                accoper.o
    0x40006424        -       0x00000614   Zero   RW         4305    .bss                logonserver.o
    0x40006a38        -       0x00000014   Zero   RW         4465    .bss                openandclose.o
    0x40006a4c        -       0x00000564   Zero   RW         4612    .bss                updatesoftware.o
    0x40006fb0        -       0x00000400   Zero   RW         4667    .bss                _init.o
    0x400073b0        -       0x000000e4   Zero   RW         4855    .bss                c_t.l(rand.o)
    0x40007494        -       0x00000060   Zero   RW         5088    .bss                c_t.l(libspace.o)
    0x400074f4   COMPRESSED   0x00000004   PAD
    0x400074f8        -       0x00000001   Zero   RW           73    HEAP                startup.o
    0x400074f9   COMPRESSED   0x00000007   PAD
    0x40007500        -       0x00000420   Zero   RW           72    STACK               startup.o
    0x40007920        -       0x00000080   Zero   RW          121    SWIStacks           os_cpu_a.o


==============================================================================

Image component sizes


      Code (inc. data)   RO Data    RW Data    ZI Data      Debug   Object Name

      1240         16        300          0          0       5903   _arithmetic.o
      7772         36        242          4          0      24709   _ascnumber.o
      2224         60          0         44        320      14291   _can.o
      2784          4         16          0          0       7865   _date.o
      2892         28         40          4        572       9795   _downfile.o
       844          8       2217          0        324      41281   _filedata.o
      1732          4        227          0          0       7567   _flash.o
      1284        104          0          0       1024      38234   _init.o
      3532         12         32          0          0       9866   _nandflash512.o
       804         24         12          4          0      11824   _rtc.o
      9948         52         60         12       1440      31526   _rwfile.o
      2364         28         16          4         24       5444   _rwflashlgc.o
      1400         32         36          5          0      13088   _spi.o
      2088         16         32          0          0       9217   _spiflash512.o
      7916        220         20         92          0      24527   _uart.o
       880         32         36         12          0      19003   acc.o
      2996         72        676          2        144      33007   accoper.o
       548         16         48          5          0      19860   adc1.o
      2132         52         52          4         96      13607   adchard.o
      2020         96        260         12          0      30307   appagreedatasensor.o
     13996        244        362         40        340      68457   appgprs.o
     17220        184        376         52       4620      60142   appsendagreeon.o
      2428         56         40         11        108      21342   arealrm.o
      4900         64        436          5          0      45150   display.o
      3740         68        240          1          0      12601   displayoper.o
      2100         24        276         10          0      14991   ds18b20.o
      5456        168        125         36       2004      31445   ftp.o
     12140        192        120        100        184      42587   gprs.o
      2508         60        211         12          0      17580   gprshard.o
       628         16         40          8          0      18884   gprstzxy.o
      4028         84        175          8        100      29775   gps.o
      1216         52         16          8        112      20828   gpsandmileage.o
       848         28         36         12          0      19060   help.o
     11684        128       2328         12          0      38811   huaiweigprs.o
      1264         24          0          0          0        244   irq.o
       900         32        472          0          0       2953   jugeoper.o
      4044         72        120         12        288      28239   less.o
      3736        108         56         17       1556      52734   logonserver.o
      4072        204         40          1          0       6592   messageandphone.o
      2708         68         36         13        104      20815   mileage.o
      1200         44         48         13         40      20581   oil.o
       800         20         36          5          0      18983   onoroff.o
      1432        100        124         46         20      24467   openandclose.o
      1172         72        292          0          0      27226   opensensor.o
      2968        128        264         68       5892      13374   os_core.o
       272         36          0          0        128        272   os_cpu_a.o
       664          8          0          4          0      10226   os_cpu_c.o
      2896         24          0          0          0      11181   os_flag.o
      1356         12          0          0          0       3474   os_mbox.o
       732          8          0          0          0       2398   os_mem.o
      2244         20          0          0          0       4812   os_q.o
      1124         16          0          0          0       2842   os_sem.o
      2460         44          0          0          0       5227   os_task.o
       652         24          0          0          0       1778   os_time.o
      1848         64         20         14       1168      16069   photo.o
      1976         20         56         64        520      21633   sensor.o
       928         52        100         16       3194      29761   sensorcontr.o
      1856         52         36         32        743      21018   smstzxy.o
      2204         84         16         32          0       5343   space.o
       220         52          0          0       1057        440   startup.o
      4848         52         64          0          0      12081   takedata.o
      1248         72          0          0          0       5138   target.o
      1524         44         43         22         32      20516   temperture.o
      2032         44         36         15        120      14658   timer.o
     14776        216        356          4          0      32650   tz_agreen.o
     27008        172        196          0          0      42064   tz_send.o
      3232         76        564         22       2148      24279   tzv2.1.o
      1092         32         48          8          0      21837   uarttzxy.o
      1060         80          0         28       1380      13660   updatesoftware.o
      1064         52         92          4          0      14062   warningupate.o

    ----------------------------------------------------------------------
    243904       4508      12268        996      29812    1366201   Object Totals
         0          0         32          0          0          0   (incl. Generated)
         0          0         18         37         10          0   (incl. Padding)

    ----------------------------------------------------------------------

      Code (inc. data)   RO Data    RW Data    ZI Data      Debug   Library Member Name

        92          0          0          0          0          0   __dczerorl2.o
         8          0          0          0          0         68   __main.o
         0          0          0          0          0          0   __rtentry.o
        44          4          0          0          0          0   __rtentry2.o
         8          0          0          0          0          0   __rtentry4.o
        60          8          0          0          0          0   __scatter.o
        44          0          0          0          0          0   __scatter_zi.o
        34          0          0          0          0        104   _rserrno.o
        16          0          0          0          0         68   aeabi_memset.o
       420          0          0          0          0        148   aeabi_sdiv.o
        20          0          0          0          0         80   exit.o
         6          0          0          0          0        136   heapauxi.o
         0          0          0          0          0          0   indicate_semi.o
        10          0          0          0          0          0   libinit.o
        16          0          0          0          0          0   libinit2.o
        12          0          0          0          0          0   libshutdown.o
         6          0          0          0          0          0   libshutdown2.o
        12          4          0          0         96         68   libspace.o
        32          0          0          0          0         60   memchr.o
        72         14          0          0        228         88   rand.o
        16          4          0          0          0         68   rt_errno_addr_intlibspace.o
        64          0          0          0          0         68   rt_memclr.o
        84          0          0          0          0         80   rt_memclr_w.o
       100          0          0          0          0         80   rt_memcpy_w.o
         8          0          0          0          0          0   rtexit.o
        12          0          0          0          0          0   rtexit2.o
        76          4          0          0          0         76   strlen.o
        20          4          0          0          0         60   sys_exit.o
        96          0          0          0          0         80   sys_stackheap_outer.o
         4          0          0          0          0         68   use_no_semi.o
       108          4          0          0          0         92   d2f.o
       944         16          0          0          0        368   daddsub_noclz.o
        16          4          0          0          0         68   dcheck1.o
       736        140          0          0          0        228   ddiv.o
       112          4          0          0          0         92   dfix.o
       100          0          0          0          0        136   dflt_noclz.o
       384         16          0          0          0        124   dmul.o
       192          0          0          0          0        108   dnaninf.o
        16          0          0          0          0         68   dretinf.o
       520         56          0          0          0        144   dsqrt_noumaal.o
       100          4          0          0          0         84   f2d.o
       500          8          0          0          0        168   faddsub_noclz.o
        28          0          0          0          0         68   fcmpi.o
        84          4          0          0          0         84   ffixu.o
       100          0          0          0          0        136   fflt_noclz.o
       132          4          0          0          0         84   fleqf.o
       256          4          0          0          0         84   fmul.o
       168          0          0          0          0         96   fnaninf.o
        16          0          0          0          0         68   fretinf.o
       124          0          0          0          0         68   frleqf.o
       116          0          0          0          0         68   retnan.o
       104          0          0          0          0         68   scalbn.o
        60          0          0          0          0         68   trapv.o
         0          0          0          0          0          0   usenofp.o
       240          4          0          0          0        124   cos.o
       412          8         48          0          0        152   cos_i.o
        48          0          0          0          0        204   dunder.o
        48          0          0          0          0         68   fpclassify.o
       256          0          0          0          0        116   poly.o
      1300         64        200          0          0        120   rred.o
       248          4          0          0          0        128   sin.o
       380         12         40          0          0        156   sin_i.o
       112          0          0          0          0        100   sqrt.o

    ----------------------------------------------------------------------
      9360        398        288          0        328       5140   Library Totals
         8          0          0          0          4          0   (incl. Padding)

    ----------------------------------------------------------------------

      Code (inc. data)   RO Data    RW Data    ZI Data      Debug   Library Name

      1392         42          0          0        324       1400   c_t.l
      4916        264          0          0          0       2572   fz_ts.l
      3044         92        288          0          0       1168   m_ts.l

    ----------------------------------------------------------------------
      9360        398        288          0        328       5140   Library Totals

    ----------------------------------------------------------------------

==============================================================================


      Code (inc. data)   RO Data    RW Data    ZI Data      Debug   

    253264       4906      12556        996      30140    1365041   Grand Totals
    253264       4906      12556        244      30140    1365041   ELF Image Totals (compressed)
    253264       4906      12556        244          0          0   ROM Totals

==============================================================================

    Total RO  Size (Code + RO Data)               265820 ( 259.59kB)
    Total RW  Size (RW Data + ZI Data)             31136 (  30.41kB)
    Total ROM Size (Code + RO Data + RW Data)     266064 ( 259.83kB)

==============================================================================

